{
   <insert_a_suppression_name_here>
   Helgrind:Race
   fun:sem_wait
   fun:_ZN4tern10RecorderRTINS_11RRSchedulerEE13pthreadCreateEjRiPmP14pthread_attr_tPFPvS7_ES7_
   fun:tern_pthread_create
   fun:__tern_prog_begin
   fun:_Z14tern_init_funciPPcS0_
   fun:(below main)
}
{
   <insert_a_suppression_name_here>
   Helgrind:Race
   fun:_ZN4tern11RRScheduler6wait_t4waitEv
   fun:_ZN4tern10RecorderRTINS_11RRSchedulerEE16pthreadMutexInitEjRiP15pthread_mutex_tPK19pthread_mutexattr_t
   fun:tern_pthread_mutex_init
   fun:pthread_mutex_init
   fun:main
}
{
   <insert_a_suppression_name_here>
   Helgrind:Race
   fun:_ZN4tern11RRScheduler6wait_t4waitEv
   fun:_ZN4tern10RecorderRTINS_11RRSchedulerEE16pthreadMutexInitEjRiP15pthread_mutex_tPK19pthread_mutexattr_t
   fun:tern_pthread_mutex_init
   fun:pthread_mutex_init
   fun:main
}
{
   <insert_a_suppression_name_here>
   Helgrind:Race
   fun:_ZN4tern10Serializer12incTurnCountEv
   fun:_ZN4tern11RRScheduler12incTurnCountEv
   fun:_ZN4tern10RecorderRTINS_11RRSchedulerEE16pthreadMutexInitEjRiP15pthread_mutex_tPK19pthread_mutexattr_t
   fun:tern_pthread_mutex_init
   fun:pthread_mutex_init
   fun:main
}
{
   <insert_a_suppression_name_here>
   Helgrind:Race
   fun:_ZN4tern10Serializer12incTurnCountEv
   fun:_ZN4tern11RRScheduler12incTurnCountEv
   fun:_ZN4tern10RecorderRTINS_11RRSchedulerEE16pthreadMutexInitEjRiP15pthread_mutex_tPK19pthread_mutexattr_t
   fun:tern_pthread_mutex_init
   fun:pthread_mutex_init
   fun:main
}
{
   <insert_a_suppression_name_here>
   Helgrind:Race
   fun:_ZN4tern11RRScheduler7putTurnEb
   fun:_ZN4tern10RecorderRTINS_11RRSchedulerEE16pthreadMutexInitEjRiP15pthread_mutex_tPK19pthread_mutexattr_t
   fun:tern_pthread_mutex_init
   fun:pthread_mutex_init
   fun:main
}
{
   <insert_a_suppression_name_here>
   Helgrind:Race
   fun:_ZN4tern11RRScheduler7putTurnEb
   fun:_ZN4tern10RecorderRTINS_11RRSchedulerEE16pthreadMutexInitEjRiP15pthread_mutex_tPK19pthread_mutexattr_t
   fun:tern_pthread_mutex_init
   fun:pthread_mutex_init
   fun:main
}
{
   <insert_a_suppression_name_here>
   Helgrind:Race
   fun:_ZN4tern11RRScheduler7putTurnEb
   fun:_ZN4tern10RecorderRTINS_11RRSchedulerEE16pthreadMutexInitEjRiP15pthread_mutex_tPK19pthread_mutexattr_t
   fun:tern_pthread_mutex_init
   fun:pthread_mutex_init
   fun:main
}
{
   <insert_a_suppression_name_here>
   Helgrind:Race
   fun:_ZN4tern11RRScheduler7putTurnEb
   fun:_ZN4tern10RecorderRTINS_11RRSchedulerEE16pthreadMutexInitEjRiP15pthread_mutex_tPK19pthread_mutexattr_t
   fun:tern_pthread_mutex_init
   fun:pthread_mutex_init
   fun:main
}
{
   <insert_a_suppression_name_here>
   Helgrind:Race
   fun:_ZN4tern11RRScheduler7putTurnEb
   fun:_ZN4tern10RecorderRTINS_11RRSchedulerEE16pthreadMutexInitEjRiP15pthread_mutex_tPK19pthread_mutexattr_t
   fun:tern_pthread_mutex_init
   fun:pthread_mutex_init
   fun:main
}
{
   <insert_a_suppression_name_here>
   Helgrind:Race
   fun:_ZN4tern11RRScheduler7putTurnEb
   fun:_ZN4tern10RecorderRTINS_11RRSchedulerEE16pthreadMutexInitEjRiP15pthread_mutex_tPK19pthread_mutexattr_t
   fun:tern_pthread_mutex_init
   fun:pthread_mutex_init
   fun:main
}
{
   <insert_a_suppression_name_here>
   Helgrind:Race
   fun:_ZN4tern11RRScheduler7putTurnEb
   fun:_ZN4tern10RecorderRTINS_11RRSchedulerEE16pthreadMutexInitEjRiP15pthread_mutex_tPK19pthread_mutexattr_t
   fun:tern_pthread_mutex_init
   fun:pthread_mutex_init
   fun:main
}
{
   <insert_a_suppression_name_here>
   Helgrind:Race
   fun:_ZN4tern11RRScheduler7putTurnEb
   fun:_ZN4tern10RecorderRTINS_11RRSchedulerEE16pthreadMutexInitEjRiP15pthread_mutex_tPK19pthread_mutexattr_t
   fun:tern_pthread_mutex_init
   fun:pthread_mutex_init
   fun:main
}
{
   <insert_a_suppression_name_here>
   Helgrind:Race
   fun:_ZN4tern11RRScheduler7putTurnEb
   fun:_ZN4tern10RecorderRTINS_11RRSchedulerEE16pthreadMutexInitEjRiP15pthread_mutex_tPK19pthread_mutexattr_t
   fun:tern_pthread_mutex_init
   fun:pthread_mutex_init
   fun:main
}
{
   <insert_a_suppression_name_here>
   Helgrind:Race
   fun:_ZN4tern11RRScheduler7putTurnEb
   fun:_ZN4tern10RecorderRTINS_11RRSchedulerEE16pthreadMutexInitEjRiP15pthread_mutex_tPK19pthread_mutexattr_t
   fun:tern_pthread_mutex_init
   fun:pthread_mutex_init
   fun:main
}
{
   <insert_a_suppression_name_here>
   Helgrind:Race
   fun:_ZN4tern11RRScheduler7putTurnEb
   fun:_ZN4tern10RecorderRTINS_11RRSchedulerEE16pthreadMutexInitEjRiP15pthread_mutex_tPK19pthread_mutexattr_t
   fun:tern_pthread_mutex_init
   fun:pthread_mutex_init
   fun:main
}
{
   <insert_a_suppression_name_here>
   Helgrind:Race
   fun:_ZN4tern11RRScheduler12nextRunnableEb
   fun:_ZN4tern11RRScheduler4nextEbb
   fun:_ZN4tern11RRScheduler7putTurnEb
   fun:_ZN4tern10RecorderRTINS_11RRSchedulerEE16pthreadMutexInitEjRiP15pthread_mutex_tPK19pthread_mutexattr_t
   fun:tern_pthread_mutex_init
   fun:pthread_mutex_init
   fun:main
}
{
   <insert_a_suppression_name_here>
   Helgrind:Race
   fun:_ZN4tern11RRScheduler12nextRunnableEb
   fun:_ZN4tern11RRScheduler4nextEbb
   fun:_ZN4tern11RRScheduler7putTurnEb
   fun:_ZN4tern10RecorderRTINS_11RRSchedulerEE16pthreadMutexInitEjRiP15pthread_mutex_tPK19pthread_mutexattr_t
   fun:tern_pthread_mutex_init
   fun:pthread_mutex_init
   fun:main
}
{
   <insert_a_suppression_name_here>
   Helgrind:Race
   fun:_ZN4tern11RRScheduler6wait_t4postEv
   fun:_ZN4tern11RRScheduler7putTurnEb
   fun:_ZN4tern10RecorderRTINS_11RRSchedulerEE16pthreadMutexInitEjRiP15pthread_mutex_tPK19pthread_mutexattr_t
   fun:tern_pthread_mutex_init
   fun:pthread_mutex_init
   fun:main
}
{
   <insert_a_suppression_name_here>
   Helgrind:Race
   fun:_ZN4tern11RRScheduler6wait_t4waitEv
   fun:_ZN4tern10RecorderRTINS_11RRSchedulerEE13pthreadCreateEjRiPmP14pthread_attr_tPFPvS7_ES7_
   fun:tern_pthread_create
   fun:pthread_create
   fun:main
}
{
   <insert_a_suppression_name_here>
   Helgrind:Race
   fun:_ZN4tern11RRScheduler6wait_t4waitEv
   fun:_ZN4tern10RecorderRTINS_11RRSchedulerEE16pthreadMutexLockEjRiP15pthread_mutex_t
   fun:tern_pthread_mutex_lock
   fun:idle_thread
   fun:__tern_thread_func
   fun:mythread_wrapper
   fun:start_thread
   fun:clone
}
{
   <insert_a_suppression_name_here>
   Helgrind:Race
   fun:_ZN4tern11RRScheduler6wait_t4waitEv
   fun:_ZN4tern10RecorderRTINS_11RRSchedulerEE16pthreadMutexLockEjRiP15pthread_mutex_t
   fun:tern_pthread_mutex_lock
   fun:idle_thread
   fun:__tern_thread_func
   fun:mythread_wrapper
   fun:start_thread
   fun:clone
}
{
   <insert_a_suppression_name_here>
   Helgrind:Race
   fun:_ZN4tern10Serializer12incTurnCountEv
   fun:_ZN4tern11RRScheduler12incTurnCountEv
   fun:_ZN4tern10RecorderRTINS_11RRSchedulerEE16pthreadMutexLockEjRiP15pthread_mutex_t
   fun:tern_pthread_mutex_lock
   fun:idle_thread
   fun:__tern_thread_func
   fun:mythread_wrapper
   fun:start_thread
   fun:clone
}
{
   <insert_a_suppression_name_here>
   Helgrind:Race
   fun:_ZN4tern10Serializer12incTurnCountEv
   fun:_ZN4tern11RRScheduler12incTurnCountEv
   fun:_ZN4tern10RecorderRTINS_11RRSchedulerEE16pthreadMutexLockEjRiP15pthread_mutex_t
   fun:tern_pthread_mutex_lock
   fun:idle_thread
   fun:__tern_thread_func
   fun:mythread_wrapper
   fun:start_thread
   fun:clone
}
{
   <insert_a_suppression_name_here>
   Helgrind:Race
   fun:_ZN4tern11RRScheduler7putTurnEb
   fun:_ZN4tern10RecorderRTINS_11RRSchedulerEE16pthreadMutexLockEjRiP15pthread_mutex_t
   fun:tern_pthread_mutex_lock
   fun:idle_thread
   fun:__tern_thread_func
   fun:mythread_wrapper
   fun:start_thread
   fun:clone
}
{
   <insert_a_suppression_name_here>
   Helgrind:Race
   fun:_ZN4tern11RRScheduler7putTurnEb
   fun:_ZN4tern10RecorderRTINS_11RRSchedulerEE16pthreadMutexLockEjRiP15pthread_mutex_t
   fun:tern_pthread_mutex_lock
   fun:idle_thread
   fun:__tern_thread_func
   fun:mythread_wrapper
   fun:start_thread
   fun:clone
}
{
   <insert_a_suppression_name_here>
   Helgrind:Race
   fun:_ZN4tern11RRScheduler7putTurnEb
   fun:_ZN4tern10RecorderRTINS_11RRSchedulerEE16pthreadMutexLockEjRiP15pthread_mutex_t
   fun:tern_pthread_mutex_lock
   fun:idle_thread
   fun:__tern_thread_func
   fun:mythread_wrapper
   fun:start_thread
   fun:clone
}
{
   <insert_a_suppression_name_here>
   Helgrind:Race
   fun:_ZN4tern11RRScheduler7putTurnEb
   fun:_ZN4tern10RecorderRTINS_11RRSchedulerEE16pthreadMutexLockEjRiP15pthread_mutex_t
   fun:tern_pthread_mutex_lock
   fun:idle_thread
   fun:__tern_thread_func
   fun:mythread_wrapper
   fun:start_thread
   fun:clone
}
{
   <insert_a_suppression_name_here>
   Helgrind:Race
   fun:_ZN4tern11RRScheduler7putTurnEb
   fun:_ZN4tern10RecorderRTINS_11RRSchedulerEE16pthreadMutexLockEjRiP15pthread_mutex_t
   fun:tern_pthread_mutex_lock
   fun:idle_thread
   fun:__tern_thread_func
   fun:mythread_wrapper
   fun:start_thread
   fun:clone
}
{
   <insert_a_suppression_name_here>
   Helgrind:Race
   fun:_ZN4tern11RRScheduler7putTurnEb
   fun:_ZN4tern10RecorderRTINS_11RRSchedulerEE16pthreadMutexLockEjRiP15pthread_mutex_t
   fun:tern_pthread_mutex_lock
   fun:idle_thread
   fun:__tern_thread_func
   fun:mythread_wrapper
   fun:start_thread
   fun:clone
}
{
   <insert_a_suppression_name_here>
   Helgrind:Race
   fun:_ZN4tern11RRScheduler7putTurnEb
   fun:_ZN4tern10RecorderRTINS_11RRSchedulerEE16pthreadMutexLockEjRiP15pthread_mutex_t
   fun:tern_pthread_mutex_lock
   fun:idle_thread
   fun:__tern_thread_func
   fun:mythread_wrapper
   fun:start_thread
   fun:clone
}
{
   <insert_a_suppression_name_here>
   Helgrind:Race
   fun:_ZN4tern11RRScheduler7putTurnEb
   fun:_ZN4tern10RecorderRTINS_11RRSchedulerEE16pthreadMutexLockEjRiP15pthread_mutex_t
   fun:tern_pthread_mutex_lock
   fun:idle_thread
   fun:__tern_thread_func
   fun:mythread_wrapper
   fun:start_thread
   fun:clone
}
{
   <insert_a_suppression_name_here>
   Helgrind:Race
   fun:_ZN4tern11RRScheduler7putTurnEb
   fun:_ZN4tern10RecorderRTINS_11RRSchedulerEE16pthreadMutexLockEjRiP15pthread_mutex_t
   fun:tern_pthread_mutex_lock
   fun:idle_thread
   fun:__tern_thread_func
   fun:mythread_wrapper
   fun:start_thread
   fun:clone
}
{
   <insert_a_suppression_name_here>
   Helgrind:Race
   fun:_ZN4tern11RRScheduler7putTurnEb
   fun:_ZN4tern10RecorderRTINS_11RRSchedulerEE16pthreadMutexLockEjRiP15pthread_mutex_t
   fun:tern_pthread_mutex_lock
   fun:idle_thread
   fun:__tern_thread_func
   fun:mythread_wrapper
   fun:start_thread
   fun:clone
}
{
   <insert_a_suppression_name_here>
   Helgrind:Race
   fun:_ZN4tern11RRScheduler7putTurnEb
   fun:_ZN4tern10RecorderRTINS_11RRSchedulerEE16pthreadMutexLockEjRiP15pthread_mutex_t
   fun:tern_pthread_mutex_lock
   fun:idle_thread
   fun:__tern_thread_func
   fun:mythread_wrapper
   fun:start_thread
   fun:clone
}
{
   <insert_a_suppression_name_here>
   Helgrind:Race
   fun:_ZN4tern11RRScheduler12nextRunnableEb
   fun:_ZN4tern11RRScheduler4nextEbb
   fun:_ZN4tern11RRScheduler7putTurnEb
   fun:_ZN4tern10RecorderRTINS_11RRSchedulerEE16pthreadMutexLockEjRiP15pthread_mutex_t
   fun:tern_pthread_mutex_lock
   fun:idle_thread
   fun:__tern_thread_func
   fun:mythread_wrapper
   fun:start_thread
   fun:clone
}
{
   <insert_a_suppression_name_here>
   Helgrind:Race
   fun:_ZN4tern11RRScheduler12nextRunnableEb
   fun:_ZN4tern11RRScheduler4nextEbb
   fun:_ZN4tern11RRScheduler7putTurnEb
   fun:_ZN4tern10RecorderRTINS_11RRSchedulerEE16pthreadMutexLockEjRiP15pthread_mutex_t
   fun:tern_pthread_mutex_lock
   fun:idle_thread
   fun:__tern_thread_func
   fun:mythread_wrapper
   fun:start_thread
   fun:clone
}
{
   <insert_a_suppression_name_here>
   Helgrind:Race
   fun:_ZN4tern11RRScheduler6wait_t4postEv
   fun:_ZN4tern11RRScheduler7putTurnEb
   fun:_ZN4tern10RecorderRTINS_11RRSchedulerEE16pthreadMutexLockEjRiP15pthread_mutex_t
   fun:tern_pthread_mutex_lock
   fun:idle_thread
   fun:__tern_thread_func
   fun:mythread_wrapper
   fun:start_thread
   fun:clone
}
{
   <insert_a_suppression_name_here>
   Helgrind:Race
   fun:_ZN4tern11RRScheduler6wait_t4waitEv
   fun:_ZN4tern10RecorderRTINS_11RRSchedulerEE14idle_cond_waitEv
   fun:tern_idle_cond_wait
   fun:idle_thread
   fun:__tern_thread_func
   fun:mythread_wrapper
   fun:start_thread
   fun:clone
}
{
   <insert_a_suppression_name_here>
   Helgrind:Race
   fun:_ZN4tern11RRScheduler6wait_t4waitEv
   fun:_ZN4tern10RecorderRTINS_11RRSchedulerEE13pthreadCreateEjRiPmP14pthread_attr_tPFPvS7_ES7_
   fun:tern_pthread_create
   fun:pthread_create
   fun:main
}
{
   <insert_a_suppression_name_here>
   Helgrind:Race
   fun:_ZN4tern11RRScheduler6wait_t4waitEv
   fun:_ZN4tern10RecorderRTINS_11RRSchedulerEE13pthreadCreateEjRiPmP14pthread_attr_tPFPvS7_ES7_
   fun:tern_pthread_create
   fun:pthread_create
   fun:main
}
{
   <insert_a_suppression_name_here>
   Helgrind:Race
   fun:_ZN4tern11RRScheduler6wait_t4waitEv
   fun:_ZN4tern10RecorderRTINS_11RRSchedulerEE14idle_cond_waitEv
   fun:tern_idle_cond_wait
   fun:idle_thread
   fun:__tern_thread_func
   fun:mythread_wrapper
   fun:start_thread
   fun:clone
}
{
   <insert_a_suppression_name_here>
   Helgrind:Race
   fun:_ZN4tern10RecorderRTINS_11RRSchedulerEE13pthreadCreateEjRiPmP14pthread_attr_tPFPvS7_ES7_
   fun:tern_pthread_create
   fun:pthread_create
   fun:main
}
{
   <insert_a_suppression_name_here>
   Helgrind:Race
   fun:_ZN4tern10RecorderRTINS_11RRSchedulerEE13pthreadCreateEjRiPmP14pthread_attr_tPFPvS7_ES7_
   fun:tern_pthread_create
   fun:pthread_create
   fun:main
}
{
   <insert_a_suppression_name_here>
   Helgrind:Race
   fun:_ZN4tern10RecorderRTINS_11RRSchedulerEE13pthreadCreateEjRiPmP14pthread_attr_tPFPvS7_ES7_
   fun:tern_pthread_create
   fun:pthread_create
   fun:main
}
{
   <insert_a_suppression_name_here>
   Helgrind:Race
   fun:_ZN4tern10RecorderRTINS_11RRSchedulerEE13pthreadCreateEjRiPmP14pthread_attr_tPFPvS7_ES7_
   fun:tern_pthread_create
   fun:pthread_create
   fun:main
}
{
   <insert_a_suppression_name_here>
   Helgrind:Race
   fun:_ZN4tern10RecorderRTINS_11RRSchedulerEE13pthreadCreateEjRiPmP14pthread_attr_tPFPvS7_ES7_
   fun:tern_pthread_create
   fun:pthread_create
   fun:main
}
{
   <insert_a_suppression_name_here>
   Helgrind:Race
   fun:_ZN4tern10RecorderRTINS_11RRSchedulerEE13pthreadCreateEjRiPmP14pthread_attr_tPFPvS7_ES7_
   fun:tern_pthread_create
   fun:pthread_create
   fun:main
}
{
   <insert_a_suppression_name_here>
   Helgrind:Race
   fun:_ZN4tern10RecorderRTINS_11RRSchedulerEE13pthreadCreateEjRiPmP14pthread_attr_tPFPvS7_ES7_
   fun:tern_pthread_create
   fun:pthread_create
   fun:main
}
{
   <insert_a_suppression_name_here>
   Helgrind:Race
   fun:_ZN4tern10Serializer12incTurnCountEv
   fun:_ZN4tern11RRScheduler12incTurnCountEv
   fun:_ZN4tern10RecorderRTINS_11RRSchedulerEE13pthreadCreateEjRiPmP14pthread_attr_tPFPvS7_ES7_
   fun:tern_pthread_create
   fun:pthread_create
   fun:main
}
{
   <insert_a_suppression_name_here>
   Helgrind:Race
   fun:_ZN4tern10Serializer12incTurnCountEv
   fun:_ZN4tern11RRScheduler12incTurnCountEv
   fun:_ZN4tern10RecorderRTINS_11RRSchedulerEE13pthreadCreateEjRiPmP14pthread_attr_tPFPvS7_ES7_
   fun:tern_pthread_create
   fun:pthread_create
   fun:main
}
{
   <insert_a_suppression_name_here>
   Helgrind:Race
   fun:_ZN4tern11RRScheduler7putTurnEb
   fun:_ZN4tern10RecorderRTINS_11RRSchedulerEE13pthreadCreateEjRiPmP14pthread_attr_tPFPvS7_ES7_
   fun:tern_pthread_create
   fun:pthread_create
   fun:main
}
{
   <insert_a_suppression_name_here>
   Helgrind:Race
   fun:_ZN4tern11RRScheduler7putTurnEb
   fun:_ZN4tern10RecorderRTINS_11RRSchedulerEE13pthreadCreateEjRiPmP14pthread_attr_tPFPvS7_ES7_
   fun:tern_pthread_create
   fun:pthread_create
   fun:main
}
{
   <insert_a_suppression_name_here>
   Helgrind:Race
   fun:_ZN4tern11RRScheduler7putTurnEb
   fun:_ZN4tern10RecorderRTINS_11RRSchedulerEE13pthreadCreateEjRiPmP14pthread_attr_tPFPvS7_ES7_
   fun:tern_pthread_create
   fun:pthread_create
   fun:main
}
{
   <insert_a_suppression_name_here>
   Helgrind:Race
   fun:_ZN4tern11RRScheduler7putTurnEb
   fun:_ZN4tern10RecorderRTINS_11RRSchedulerEE13pthreadCreateEjRiPmP14pthread_attr_tPFPvS7_ES7_
   fun:tern_pthread_create
   fun:pthread_create
   fun:main
}
{
   <insert_a_suppression_name_here>
   Helgrind:Race
   fun:_ZN4tern11RRScheduler7putTurnEb
   fun:_ZN4tern10RecorderRTINS_11RRSchedulerEE13pthreadCreateEjRiPmP14pthread_attr_tPFPvS7_ES7_
   fun:tern_pthread_create
   fun:pthread_create
   fun:main
}
{
   <insert_a_suppression_name_here>
   Helgrind:Race
   fun:_ZN4tern11RRScheduler12nextRunnableEb
   fun:_ZN4tern11RRScheduler4nextEbb
   fun:_ZN4tern11RRScheduler7putTurnEb
   fun:_ZN4tern10RecorderRTINS_11RRSchedulerEE13pthreadCreateEjRiPmP14pthread_attr_tPFPvS7_ES7_
   fun:tern_pthread_create
   fun:pthread_create
   fun:main
}
{
   <insert_a_suppression_name_here>
   Helgrind:Race
   fun:_ZN4tern11RRScheduler12nextRunnableEb
   fun:_ZN4tern11RRScheduler4nextEbb
   fun:_ZN4tern11RRScheduler7putTurnEb
   fun:_ZN4tern10RecorderRTINS_11RRSchedulerEE13pthreadCreateEjRiPmP14pthread_attr_tPFPvS7_ES7_
   fun:tern_pthread_create
   fun:pthread_create
   fun:main
}
{
   <insert_a_suppression_name_here>
   Helgrind:Race
   fun:_ZN4tern11RRScheduler6wait_t4postEv
   fun:_ZN4tern11RRScheduler7putTurnEb
   fun:_ZN4tern10RecorderRTINS_11RRSchedulerEE13pthreadCreateEjRiPmP14pthread_attr_tPFPvS7_ES7_
   fun:tern_pthread_create
   fun:pthread_create
   fun:main
}
{
   <insert_a_suppression_name_here>
   Helgrind:Race
   fun:_ZN4tern11RRScheduler6wait_t4waitEv
   fun:_ZN4tern10RecorderRTINS_11RRSchedulerEE14idle_cond_waitEv
   fun:tern_idle_cond_wait
   fun:idle_thread
   fun:__tern_thread_func
   fun:mythread_wrapper
   fun:start_thread
   fun:clone
}
{
   <insert_a_suppression_name_here>
   Helgrind:Race
   fun:_ZN4tern10Serializer12incTurnCountEv
   fun:_ZN4tern11RRScheduler12incTurnCountEv
   fun:_ZN4tern10RecorderRTINS_11RRSchedulerEE14idle_cond_waitEv
   fun:tern_idle_cond_wait
   fun:idle_thread
   fun:__tern_thread_func
   fun:mythread_wrapper
   fun:start_thread
   fun:clone
}
{
   <insert_a_suppression_name_here>
   Helgrind:Race
   fun:_ZN4tern10Serializer12incTurnCountEv
   fun:_ZN4tern11RRScheduler12incTurnCountEv
   fun:_ZN4tern10RecorderRTINS_11RRSchedulerEE14idle_cond_waitEv
   fun:tern_idle_cond_wait
   fun:idle_thread
   fun:__tern_thread_func
   fun:mythread_wrapper
   fun:start_thread
   fun:clone
}
{
   <insert_a_suppression_name_here>
   Helgrind:Race
   fun:_ZN4tern10RecorderRTINS_11RRSchedulerEE14idle_cond_waitEv
   fun:tern_idle_cond_wait
   fun:idle_thread
   fun:__tern_thread_func
   fun:mythread_wrapper
   fun:start_thread
   fun:clone
}
{
   <insert_a_suppression_name_here>
   Helgrind:Race
   fun:_ZN4tern11RRScheduler10tryPutTurnEv
   fun:_ZN4tern11RRScheduler18idleThreadCondWaitEv
   fun:tern_idle_cond_wait
   fun:idle_thread
   fun:__tern_thread_func
   fun:mythread_wrapper
   fun:start_thread
   fun:clone
}
{
   <insert_a_suppression_name_here>
   Helgrind:Race
   fun:_ZN4tern11RRScheduler10tryPutTurnEv
   fun:_ZN4tern11RRScheduler18idleThreadCondWaitEv
   fun:tern_idle_cond_wait
   fun:idle_thread
   fun:__tern_thread_func
   fun:mythread_wrapper
   fun:start_thread
   fun:clone
}
{
   <insert_a_suppression_name_here>
   Helgrind:Race
   fun:_ZN4tern11RRScheduler10tryPutTurnEv
   fun:_ZN4tern11RRScheduler18idleThreadCondWaitEv
   fun:tern_idle_cond_wait
   fun:idle_thread
   fun:__tern_thread_func
   fun:mythread_wrapper
   fun:start_thread
   fun:clone
}
{
   <insert_a_suppression_name_here>
   Helgrind:Race
   fun:_ZN4tern11RRScheduler10tryPutTurnEv
   fun:_ZN4tern11RRScheduler18idleThreadCondWaitEv
   fun:tern_idle_cond_wait
   fun:idle_thread
   fun:__tern_thread_func
   fun:mythread_wrapper
   fun:start_thread
   fun:clone
}
{
   <insert_a_suppression_name_here>
   Helgrind:Race
   fun:_ZNSt15_List_node_base7_M_hookEPS_
   fun:_ZN4tern11RRScheduler18idleThreadCondWaitEv
   fun:tern_idle_cond_wait
   fun:idle_thread
   fun:__tern_thread_func
   fun:mythread_wrapper
   fun:start_thread
   fun:clone
}
{
   <insert_a_suppression_name_here>
   Helgrind:Race
   fun:_ZN4tern11RRScheduler18idleThreadCondWaitEv
   fun:tern_idle_cond_wait
   fun:idle_thread
   fun:__tern_thread_func
   fun:mythread_wrapper
   fun:start_thread
   fun:clone
}
{
   <insert_a_suppression_name_here>
   Helgrind:Race
   fun:_ZN4tern11RRScheduler4nextEbb
   fun:_ZN4tern11RRScheduler18idleThreadCondWaitEv
   fun:tern_idle_cond_wait
   fun:idle_thread
   fun:__tern_thread_func
   fun:mythread_wrapper
   fun:start_thread
   fun:clone
}
{
   <insert_a_suppression_name_here>
   Helgrind:Race
   fun:_ZN4tern11RRScheduler4nextEbb
   fun:_ZN4tern11RRScheduler18idleThreadCondWaitEv
   fun:tern_idle_cond_wait
   fun:idle_thread
   fun:__tern_thread_func
   fun:mythread_wrapper
   fun:start_thread
   fun:clone
}
{
   <insert_a_suppression_name_here>
   Helgrind:Race
   fun:_ZN4tern11RRScheduler4nextEbb
   fun:_ZN4tern11RRScheduler18idleThreadCondWaitEv
   fun:tern_idle_cond_wait
   fun:idle_thread
   fun:__tern_thread_func
   fun:mythread_wrapper
   fun:start_thread
   fun:clone
}
{
   <insert_a_suppression_name_here>
   Helgrind:Race
   fun:_ZN4tern11RRScheduler4nextEbb
   fun:_ZN4tern11RRScheduler18idleThreadCondWaitEv
   fun:tern_idle_cond_wait
   fun:idle_thread
   fun:__tern_thread_func
   fun:mythread_wrapper
   fun:start_thread
   fun:clone
}
{
   <insert_a_suppression_name_here>
   Helgrind:Race
   fun:_ZN4tern11RRScheduler4nextEbb
   fun:_ZN4tern11RRScheduler18idleThreadCondWaitEv
   fun:tern_idle_cond_wait
   fun:idle_thread
   fun:__tern_thread_func
   fun:mythread_wrapper
   fun:start_thread
   fun:clone
}
{
   <insert_a_suppression_name_here>
   Helgrind:Race
   fun:_ZN4tern11RRScheduler4nextEbb
   fun:_ZN4tern11RRScheduler18idleThreadCondWaitEv
   fun:tern_idle_cond_wait
   fun:idle_thread
   fun:__tern_thread_func
   fun:mythread_wrapper
   fun:start_thread
   fun:clone
}
{
   <insert_a_suppression_name_here>
   Helgrind:Race
   fun:_ZN4tern11RRScheduler4nextEbb
   fun:_ZN4tern11RRScheduler18idleThreadCondWaitEv
   fun:tern_idle_cond_wait
   fun:idle_thread
   fun:__tern_thread_func
   fun:mythread_wrapper
   fun:start_thread
   fun:clone
}
{
   <insert_a_suppression_name_here>
   Helgrind:Race
   fun:_ZN4tern11RRScheduler12nextRunnableEb
   fun:_ZN4tern11RRScheduler4nextEbb
   fun:_ZN4tern11RRScheduler18idleThreadCondWaitEv
   fun:tern_idle_cond_wait
   fun:idle_thread
   fun:__tern_thread_func
   fun:mythread_wrapper
   fun:start_thread
   fun:clone
}
{
   <insert_a_suppression_name_here>
   Helgrind:Race
   fun:_ZN4tern11RRScheduler12nextRunnableEb
   fun:_ZN4tern11RRScheduler4nextEbb
   fun:_ZN4tern11RRScheduler18idleThreadCondWaitEv
   fun:tern_idle_cond_wait
   fun:idle_thread
   fun:__tern_thread_func
   fun:mythread_wrapper
   fun:start_thread
   fun:clone
}
{
   <insert_a_suppression_name_here>
   Helgrind:Race
   fun:_ZN4tern11RRScheduler4nextEbb
   fun:_ZN4tern11RRScheduler18idleThreadCondWaitEv
   fun:tern_idle_cond_wait
   fun:idle_thread
   fun:__tern_thread_func
   fun:mythread_wrapper
   fun:start_thread
   fun:clone
}
{
   <insert_a_suppression_name_here>
   Helgrind:Race
   fun:_ZN4tern11RRScheduler6wait_t4postEv
   fun:_ZN4tern11RRScheduler18idleThreadCondWaitEv
   fun:tern_idle_cond_wait
   fun:idle_thread
   fun:__tern_thread_func
   fun:mythread_wrapper
   fun:start_thread
   fun:clone
}
{
   <insert_a_suppression_name_here>
   Helgrind:Race
   fun:_ZN4tern11RRScheduler6wait_t4waitEv
   fun:_ZN4tern10RecorderRTINS_11RRSchedulerEE11threadBeginEv
   fun:tern_thread_begin
   fun:__tern_thread_func
   fun:mythread_wrapper
   fun:start_thread
   fun:clone
}
{
   <insert_a_suppression_name_here>
   Helgrind:Race
   fun:_ZN4tern11RRScheduler6wait_t4waitEv
   fun:_ZN4tern10RecorderRTINS_11RRSchedulerEE11threadBeginEv
   fun:tern_thread_begin
   fun:__tern_thread_func
   fun:mythread_wrapper
   fun:start_thread
   fun:clone
}
{
   <insert_a_suppression_name_here>
   Helgrind:Race
   fun:_ZN4tern10Serializer12incTurnCountEv
   fun:_ZN4tern11RRScheduler12incTurnCountEv
   fun:_ZN4tern10RecorderRTINS_11RRSchedulerEE11threadBeginEv
   fun:tern_thread_begin
   fun:__tern_thread_func
   fun:mythread_wrapper
   fun:start_thread
   fun:clone
}
{
   <insert_a_suppression_name_here>
   Helgrind:Race
   fun:_ZN4tern10Serializer12incTurnCountEv
   fun:_ZN4tern11RRScheduler12incTurnCountEv
   fun:_ZN4tern10RecorderRTINS_11RRSchedulerEE11threadBeginEv
   fun:tern_thread_begin
   fun:__tern_thread_func
   fun:mythread_wrapper
   fun:start_thread
   fun:clone
}
{
   <insert_a_suppression_name_here>
   Helgrind:Race
   fun:_ZN4tern11RRScheduler12fireTimeoutsEv
   fun:_ZN4tern11RRScheduler12incTurnCountEv
   fun:_ZN4tern10RecorderRTINS_11RRSchedulerEE11threadBeginEv
   fun:tern_thread_begin
   fun:__tern_thread_func
   fun:mythread_wrapper
   fun:start_thread
   fun:clone
}
{
   <insert_a_suppression_name_here>
   Helgrind:Race
   fun:_ZN4tern11RRScheduler12fireTimeoutsEv
   fun:_ZN4tern11RRScheduler12incTurnCountEv
   fun:_ZN4tern10RecorderRTINS_11RRSchedulerEE11threadBeginEv
   fun:tern_thread_begin
   fun:__tern_thread_func
   fun:mythread_wrapper
   fun:start_thread
   fun:clone
}
{
   <insert_a_suppression_name_here>
   Helgrind:Race
   fun:_ZN4tern11RRScheduler12fireTimeoutsEv
   fun:_ZN4tern11RRScheduler12incTurnCountEv
   fun:_ZN4tern10RecorderRTINS_11RRSchedulerEE11threadBeginEv
   fun:tern_thread_begin
   fun:__tern_thread_func
   fun:mythread_wrapper
   fun:start_thread
   fun:clone
}
{
   <insert_a_suppression_name_here>
   Helgrind:Race
   fun:_ZN4tern11RRScheduler12fireTimeoutsEv
   fun:_ZN4tern11RRScheduler12incTurnCountEv
   fun:_ZN4tern10RecorderRTINS_11RRSchedulerEE11threadBeginEv
   fun:tern_thread_begin
   fun:__tern_thread_func
   fun:mythread_wrapper
   fun:start_thread
   fun:clone
}
{
   <insert_a_suppression_name_here>
   Helgrind:Race
   fun:_ZN4tern11RRScheduler7putTurnEb
   fun:_ZN4tern10RecorderRTINS_11RRSchedulerEE11threadBeginEv
   fun:tern_thread_begin
   fun:__tern_thread_func
   fun:mythread_wrapper
   fun:start_thread
   fun:clone
}
{
   <insert_a_suppression_name_here>
   Helgrind:Race
   fun:_ZN4tern11RRScheduler7putTurnEb
   fun:_ZN4tern10RecorderRTINS_11RRSchedulerEE11threadBeginEv
   fun:tern_thread_begin
   fun:__tern_thread_func
   fun:mythread_wrapper
   fun:start_thread
   fun:clone
}
{
   <insert_a_suppression_name_here>
   Helgrind:Race
   fun:_ZN4tern11RRScheduler7putTurnEb
   fun:_ZN4tern10RecorderRTINS_11RRSchedulerEE11threadBeginEv
   fun:tern_thread_begin
   fun:__tern_thread_func
   fun:mythread_wrapper
   fun:start_thread
   fun:clone
}
{
   <insert_a_suppression_name_here>
   Helgrind:Race
   fun:_ZN4tern11RRScheduler7putTurnEb
   fun:_ZN4tern10RecorderRTINS_11RRSchedulerEE11threadBeginEv
   fun:tern_thread_begin
   fun:__tern_thread_func
   fun:mythread_wrapper
   fun:start_thread
   fun:clone
}
{
   <insert_a_suppression_name_here>
   Helgrind:Race
   fun:_ZN4tern11RRScheduler7putTurnEb
   fun:_ZN4tern10RecorderRTINS_11RRSchedulerEE11threadBeginEv
   fun:tern_thread_begin
   fun:__tern_thread_func
   fun:mythread_wrapper
   fun:start_thread
   fun:clone
}
{
   <insert_a_suppression_name_here>
   Helgrind:Race
   fun:_ZN4tern11RRScheduler7putTurnEb
   fun:_ZN4tern10RecorderRTINS_11RRSchedulerEE11threadBeginEv
   fun:tern_thread_begin
   fun:__tern_thread_func
   fun:mythread_wrapper
   fun:start_thread
   fun:clone
}
{
   <insert_a_suppression_name_here>
   Helgrind:Race
   fun:_ZN4tern11RRScheduler7putTurnEb
   fun:_ZN4tern10RecorderRTINS_11RRSchedulerEE11threadBeginEv
   fun:tern_thread_begin
   fun:__tern_thread_func
   fun:mythread_wrapper
   fun:start_thread
   fun:clone
}
{
   <insert_a_suppression_name_here>
   Helgrind:Race
   fun:_ZN4tern11RRScheduler7putTurnEb
   fun:_ZN4tern10RecorderRTINS_11RRSchedulerEE11threadBeginEv
   fun:tern_thread_begin
   fun:__tern_thread_func
   fun:mythread_wrapper
   fun:start_thread
   fun:clone
}
{
   <insert_a_suppression_name_here>
   Helgrind:Race
   fun:_ZN4tern11RRScheduler7putTurnEb
   fun:_ZN4tern10RecorderRTINS_11RRSchedulerEE11threadBeginEv
   fun:tern_thread_begin
   fun:__tern_thread_func
   fun:mythread_wrapper
   fun:start_thread
   fun:clone
}
{
   <insert_a_suppression_name_here>
   Helgrind:Race
   fun:_ZN4tern11RRScheduler6wait_t4postEv
   fun:_ZN4tern11RRScheduler7putTurnEb
   fun:_ZN4tern10RecorderRTINS_11RRSchedulerEE11threadBeginEv
   fun:tern_thread_begin
   fun:__tern_thread_func
   fun:mythread_wrapper
   fun:start_thread
   fun:clone
}
{
   <insert_a_suppression_name_here>
   Helgrind:Race
   fun:_ZN4tern11RRScheduler6wait_t4waitEv
   fun:_ZN4tern10RecorderRTINS_11RRSchedulerEE16pthreadMutexLockEjRiP15pthread_mutex_t
   fun:tern_pthread_mutex_lock
   fun:pthread_mutex_lock
   fun:_Z13thread_func_1Pv
   fun:__tern_thread_func
   fun:mythread_wrapper
   fun:start_thread
   fun:clone
}
{
   <insert_a_suppression_name_here>
   Helgrind:Race
   fun:_ZN4tern11RRScheduler6wait_t4waitEv
   fun:_ZN4tern10RecorderRTINS_11RRSchedulerEE16pthreadMutexLockEjRiP15pthread_mutex_t
   fun:tern_pthread_mutex_lock
   fun:pthread_mutex_lock
   fun:_Z13thread_func_1Pv
   fun:__tern_thread_func
   fun:mythread_wrapper
   fun:start_thread
   fun:clone
}
{
   <insert_a_suppression_name_here>
   Helgrind:Race
   fun:_ZN4tern11RRScheduler12fireTimeoutsEv
   fun:_ZN4tern11RRScheduler12incTurnCountEv
   fun:_ZN4tern10RecorderRTINS_11RRSchedulerEE16pthreadMutexLockEjRiP15pthread_mutex_t
   fun:tern_pthread_mutex_lock
   fun:pthread_mutex_lock
   fun:_Z13thread_func_1Pv
   fun:__tern_thread_func
   fun:mythread_wrapper
   fun:start_thread
   fun:clone
}
{
   <insert_a_suppression_name_here>
   Helgrind:Race
   fun:_ZN4tern11RRScheduler4nextEbb
   fun:_ZN4tern11RRScheduler7putTurnEb
   fun:_ZN4tern10RecorderRTINS_11RRSchedulerEE16pthreadMutexLockEjRiP15pthread_mutex_t
   fun:tern_pthread_mutex_lock
   fun:pthread_mutex_lock
   fun:_Z13thread_func_1Pv
   fun:__tern_thread_func
   fun:mythread_wrapper
   fun:start_thread
   fun:clone
}
{
   <insert_a_suppression_name_here>
   Helgrind:Race
   fun:_ZN4tern11RRScheduler7getTurnEv
   fun:_ZN4tern10RecorderRTINS_11RRSchedulerEE18pthreadMutexUnlockEjRiP15pthread_mutex_t
   fun:tern_pthread_mutex_unlock
   fun:pthread_mutex_unlock
   fun:_Z13thread_func_1Pv
   fun:__tern_thread_func
   fun:mythread_wrapper
   fun:start_thread
   fun:clone
}
{
   <insert_a_suppression_name_here>
   Helgrind:Race
   fun:_ZN4tern11RRScheduler6wait_t4waitEv
   fun:_ZN4tern10RecorderRTINS_11RRSchedulerEE18pthreadMutexUnlockEjRiP15pthread_mutex_t
   fun:tern_pthread_mutex_unlock
   fun:pthread_mutex_unlock
   fun:_Z13thread_func_1Pv
   fun:__tern_thread_func
   fun:mythread_wrapper
   fun:start_thread
   fun:clone
}
{
   <insert_a_suppression_name_here>
   Helgrind:Race
   fun:_ZN4tern11RRScheduler6wait_t4waitEv
   fun:_ZN4tern10RecorderRTINS_11RRSchedulerEE11pthreadJoinEjRimPPv
   fun:tern_pthread_join
   fun:pthread_join
   fun:main
}
{
   <insert_a_suppression_name_here>
   Helgrind:Race
   fun:_ZN4tern11RRScheduler6wait_t4waitEv
   fun:_ZN4tern10RecorderRTINS_11RRSchedulerEE11pthreadJoinEjRimPPv
   fun:tern_pthread_join
   fun:pthread_join
   fun:main
}
{
   <insert_a_suppression_name_here>
   Helgrind:Race
   fun:_ZN4tern11RRScheduler6wait_t4waitEv
   fun:_ZN4tern10RecorderRTINS_11RRSchedulerEE11pthreadJoinEjRimPPv
   fun:tern_pthread_join
   fun:pthread_join
   fun:main
}
{
   <insert_a_suppression_name_here>
   Helgrind:Race
   fun:_ZN4tern11RRScheduler4waitEPvj
   fun:_ZN4tern10RecorderRTINS_11RRSchedulerEE11pthreadJoinEjRimPPv
   fun:tern_pthread_join
   fun:pthread_join
   fun:main
}
{
   <insert_a_suppression_name_here>
   Helgrind:Race
   fun:_ZNSt15_List_node_base7_M_hookEPS_
   fun:_ZN4tern11RRScheduler4waitEPvj
   fun:_ZN4tern10RecorderRTINS_11RRSchedulerEE11pthreadJoinEjRimPPv
   fun:tern_pthread_join
   fun:pthread_join
   fun:main
}
{
   <insert_a_suppression_name_here>
   Helgrind:Race
   fun:_ZN4tern11RRScheduler4nextEbb
   fun:_ZN4tern11RRScheduler4waitEPvj
   fun:_ZN4tern10RecorderRTINS_11RRSchedulerEE11pthreadJoinEjRimPPv
   fun:tern_pthread_join
   fun:pthread_join
   fun:main
}
{
   <insert_a_suppression_name_here>
   Helgrind:Race
   fun:_ZN4tern11RRScheduler4nextEbb
   fun:_ZN4tern11RRScheduler4waitEPvj
   fun:_ZN4tern10RecorderRTINS_11RRSchedulerEE11pthreadJoinEjRimPPv
   fun:tern_pthread_join
   fun:pthread_join
   fun:main
}
{
   <insert_a_suppression_name_here>
   Helgrind:Race
   fun:_ZN4tern11RRScheduler4nextEbb
   fun:_ZN4tern11RRScheduler4waitEPvj
   fun:_ZN4tern10RecorderRTINS_11RRSchedulerEE11pthreadJoinEjRimPPv
   fun:tern_pthread_join
   fun:pthread_join
   fun:main
}
{
   <insert_a_suppression_name_here>
   Helgrind:Race
   fun:_ZN4tern11RRScheduler4nextEbb
   fun:_ZN4tern11RRScheduler4waitEPvj
   fun:_ZN4tern10RecorderRTINS_11RRSchedulerEE11pthreadJoinEjRimPPv
   fun:tern_pthread_join
   fun:pthread_join
   fun:main
}
{
   <insert_a_suppression_name_here>
   Helgrind:Race
   fun:_ZN4tern11RRScheduler4nextEbb
   fun:_ZN4tern11RRScheduler4waitEPvj
   fun:_ZN4tern10RecorderRTINS_11RRSchedulerEE11pthreadJoinEjRimPPv
   fun:tern_pthread_join
   fun:pthread_join
   fun:main
}
{
   <insert_a_suppression_name_here>
   Helgrind:Race
   fun:_ZN4tern11RRScheduler4nextEbb
   fun:_ZN4tern11RRScheduler4waitEPvj
   fun:_ZN4tern10RecorderRTINS_11RRSchedulerEE11pthreadJoinEjRimPPv
   fun:tern_pthread_join
   fun:pthread_join
   fun:main
}
{
   <insert_a_suppression_name_here>
   Helgrind:Race
   fun:_ZN4tern11RRScheduler4nextEbb
   fun:_ZN4tern11RRScheduler4waitEPvj
   fun:_ZN4tern10RecorderRTINS_11RRSchedulerEE11pthreadJoinEjRimPPv
   fun:tern_pthread_join
   fun:pthread_join
   fun:main
}
{
   <insert_a_suppression_name_here>
   Helgrind:Race
   fun:_ZN4tern11RRScheduler6wait_t4postEv
   fun:_ZN4tern11RRScheduler4waitEPvj
   fun:_ZN4tern10RecorderRTINS_11RRSchedulerEE11pthreadJoinEjRimPPv
   fun:tern_pthread_join
   fun:pthread_join
   fun:main
}
{
   <insert_a_suppression_name_here>
   Helgrind:Race
   fun:_ZN4tern11RRScheduler6wait_t4waitEv
   fun:_ZN4tern11RRScheduler4waitEPvj
   fun:_ZN4tern10RecorderRTINS_11RRSchedulerEE11pthreadJoinEjRimPPv
   fun:tern_pthread_join
   fun:pthread_join
   fun:main
}
{
   <insert_a_suppression_name_here>
   Helgrind:Race
   fun:_ZN4tern11RRScheduler6wait_t4waitEv
   fun:_ZN4tern10RecorderRTINS_11RRSchedulerEE18pthreadMutexUnlockEjRiP15pthread_mutex_t
   fun:tern_pthread_mutex_unlock
   fun:pthread_mutex_unlock
   fun:_Z13thread_func_1Pv
   fun:__tern_thread_func
   fun:mythread_wrapper
   fun:start_thread
   fun:clone
}
{
   <insert_a_suppression_name_here>
   Helgrind:Race
   fun:_ZN4tern11RRScheduler6wait_t4waitEv
   fun:_ZN4tern10RecorderRTINS_11RRSchedulerEE18pthreadMutexUnlockEjRiP15pthread_mutex_t
   fun:tern_pthread_mutex_unlock
   fun:pthread_mutex_unlock
   fun:_Z13thread_func_1Pv
   fun:__tern_thread_func
   fun:mythread_wrapper
   fun:start_thread
   fun:clone
}
{
   <insert_a_suppression_name_here>
   Helgrind:Race
   fun:_ZN4tern11RRScheduler6signalEPvb
   fun:_ZN4tern10RecorderRTINS_11RRSchedulerEE10syncSignalEPvb
   fun:_ZN4tern10RecorderRTINS_11RRSchedulerEE18pthreadMutexUnlockEjRiP15pthread_mutex_t
   fun:tern_pthread_mutex_unlock
   fun:pthread_mutex_unlock
   fun:_Z13thread_func_1Pv
   fun:__tern_thread_func
   fun:mythread_wrapper
   fun:start_thread
   fun:clone
}
{
   <insert_a_suppression_name_here>
   Helgrind:Race
   fun:_ZN4tern11RRScheduler6signalEPvb
   fun:_ZN4tern10RecorderRTINS_11RRSchedulerEE10syncSignalEPvb
   fun:_ZN4tern10RecorderRTINS_11RRSchedulerEE18pthreadMutexUnlockEjRiP15pthread_mutex_t
   fun:tern_pthread_mutex_unlock
   fun:pthread_mutex_unlock
   fun:_Z13thread_func_1Pv
   fun:__tern_thread_func
   fun:mythread_wrapper
   fun:start_thread
   fun:clone
}
{
   <insert_a_suppression_name_here>
   Helgrind:Race
   fun:_ZN4tern11RRScheduler6signalEPvb
   fun:_ZN4tern10RecorderRTINS_11RRSchedulerEE10syncSignalEPvb
   fun:_ZN4tern10RecorderRTINS_11RRSchedulerEE18pthreadMutexUnlockEjRiP15pthread_mutex_t
   fun:tern_pthread_mutex_unlock
   fun:pthread_mutex_unlock
   fun:_Z13thread_func_1Pv
   fun:__tern_thread_func
   fun:mythread_wrapper
   fun:start_thread
   fun:clone
}
{
   <insert_a_suppression_name_here>
   Helgrind:Race
   fun:_ZN4tern11RRScheduler6signalEPvb
   fun:_ZN4tern10RecorderRTINS_11RRSchedulerEE10syncSignalEPvb
   fun:_ZN4tern10RecorderRTINS_11RRSchedulerEE18pthreadMutexUnlockEjRiP15pthread_mutex_t
   fun:tern_pthread_mutex_unlock
   fun:pthread_mutex_unlock
   fun:_Z13thread_func_1Pv
   fun:__tern_thread_func
   fun:mythread_wrapper
   fun:start_thread
   fun:clone
}
{
   <insert_a_suppression_name_here>
   Helgrind:Race
   fun:_ZN4tern11RRScheduler6signalEPvb
   fun:_ZN4tern10RecorderRTINS_11RRSchedulerEE10syncSignalEPvb
   fun:_ZN4tern10RecorderRTINS_11RRSchedulerEE18pthreadMutexUnlockEjRiP15pthread_mutex_t
   fun:tern_pthread_mutex_unlock
   fun:pthread_mutex_unlock
   fun:_Z13thread_func_1Pv
   fun:__tern_thread_func
   fun:mythread_wrapper
   fun:start_thread
   fun:clone
}
{
   <insert_a_suppression_name_here>
   Helgrind:Race
   fun:_ZN4tern11RRScheduler6signalEPvb
   fun:_ZN4tern10RecorderRTINS_11RRSchedulerEE10syncSignalEPvb
   fun:_ZN4tern10RecorderRTINS_11RRSchedulerEE18pthreadMutexUnlockEjRiP15pthread_mutex_t
   fun:tern_pthread_mutex_unlock
   fun:pthread_mutex_unlock
   fun:_Z13thread_func_1Pv
   fun:__tern_thread_func
   fun:mythread_wrapper
   fun:start_thread
   fun:clone
}
{
   <insert_a_suppression_name_here>
   Helgrind:Race
   fun:_ZN4tern11RRScheduler7putTurnEb
   fun:_ZN4tern10RecorderRTINS_11RRSchedulerEE18pthreadMutexUnlockEjRiP15pthread_mutex_t
   fun:tern_pthread_mutex_unlock
   fun:pthread_mutex_unlock
   fun:_Z13thread_func_1Pv
   fun:__tern_thread_func
   fun:mythread_wrapper
   fun:start_thread
   fun:clone
}
{
   <insert_a_suppression_name_here>
   Helgrind:Race
   fun:_ZN4tern11RRScheduler7putTurnEb
   fun:_ZN4tern10RecorderRTINS_11RRSchedulerEE18pthreadMutexUnlockEjRiP15pthread_mutex_t
   fun:tern_pthread_mutex_unlock
   fun:pthread_mutex_unlock
   fun:_Z13thread_func_1Pv
   fun:__tern_thread_func
   fun:mythread_wrapper
   fun:start_thread
   fun:clone
}
{
   <insert_a_suppression_name_here>
   Helgrind:Race
   fun:_ZN4tern11RRScheduler7putTurnEb
   fun:_ZN4tern10RecorderRTINS_11RRSchedulerEE18pthreadMutexUnlockEjRiP15pthread_mutex_t
   fun:tern_pthread_mutex_unlock
   fun:pthread_mutex_unlock
   fun:_Z13thread_func_1Pv
   fun:__tern_thread_func
   fun:mythread_wrapper
   fun:start_thread
   fun:clone
}
{
   <insert_a_suppression_name_here>
   Helgrind:Race
   fun:_ZN4tern11RRScheduler7putTurnEb
   fun:_ZN4tern10RecorderRTINS_11RRSchedulerEE18pthreadMutexUnlockEjRiP15pthread_mutex_t
   fun:tern_pthread_mutex_unlock
   fun:pthread_mutex_unlock
   fun:_Z13thread_func_1Pv
   fun:__tern_thread_func
   fun:mythread_wrapper
   fun:start_thread
   fun:clone
}
{
   <insert_a_suppression_name_here>
   Helgrind:Race
   fun:_ZN4tern11RRScheduler7putTurnEb
   fun:_ZN4tern10RecorderRTINS_11RRSchedulerEE18pthreadMutexUnlockEjRiP15pthread_mutex_t
   fun:tern_pthread_mutex_unlock
   fun:pthread_mutex_unlock
   fun:_Z13thread_func_1Pv
   fun:__tern_thread_func
   fun:mythread_wrapper
   fun:start_thread
   fun:clone
}
{
   <insert_a_suppression_name_here>
   Helgrind:Race
   fun:_ZN4tern11RRScheduler7putTurnEb
   fun:_ZN4tern10RecorderRTINS_11RRSchedulerEE18pthreadMutexUnlockEjRiP15pthread_mutex_t
   fun:tern_pthread_mutex_unlock
   fun:pthread_mutex_unlock
   fun:_Z13thread_func_1Pv
   fun:__tern_thread_func
   fun:mythread_wrapper
   fun:start_thread
   fun:clone
}
{
   <insert_a_suppression_name_here>
   Helgrind:Race
   fun:_ZN4tern11RRScheduler7putTurnEb
   fun:_ZN4tern10RecorderRTINS_11RRSchedulerEE18pthreadMutexUnlockEjRiP15pthread_mutex_t
   fun:tern_pthread_mutex_unlock
   fun:pthread_mutex_unlock
   fun:_Z13thread_func_1Pv
   fun:__tern_thread_func
   fun:mythread_wrapper
   fun:start_thread
   fun:clone
}
{
   <insert_a_suppression_name_here>
   Helgrind:Race
   fun:_ZN4tern11RRScheduler7putTurnEb
   fun:_ZN4tern10RecorderRTINS_11RRSchedulerEE18pthreadMutexUnlockEjRiP15pthread_mutex_t
   fun:tern_pthread_mutex_unlock
   fun:pthread_mutex_unlock
   fun:_Z13thread_func_1Pv
   fun:__tern_thread_func
   fun:mythread_wrapper
   fun:start_thread
   fun:clone
}
{
   <insert_a_suppression_name_here>
   Helgrind:Race
   fun:_ZN4tern11RRScheduler7putTurnEb
   fun:_ZN4tern10RecorderRTINS_11RRSchedulerEE18pthreadMutexUnlockEjRiP15pthread_mutex_t
   fun:tern_pthread_mutex_unlock
   fun:pthread_mutex_unlock
   fun:_Z13thread_func_1Pv
   fun:__tern_thread_func
   fun:mythread_wrapper
   fun:start_thread
   fun:clone
}
{
   <insert_a_suppression_name_here>
   Helgrind:Race
   fun:_ZN4tern11RRScheduler7putTurnEb
   fun:_ZN4tern10RecorderRTINS_11RRSchedulerEE18pthreadMutexUnlockEjRiP15pthread_mutex_t
   fun:tern_pthread_mutex_unlock
   fun:pthread_mutex_unlock
   fun:_Z13thread_func_1Pv
   fun:__tern_thread_func
   fun:mythread_wrapper
   fun:start_thread
   fun:clone
}
{
   <insert_a_suppression_name_here>
   Helgrind:Race
   fun:_ZN4tern11RRScheduler7getTurnEv
   fun:_ZN4tern10RecorderRTINS_11RRSchedulerEE9threadEndEj
   fun:tern_thread_end
   fun:tern_pthread_exit
   fun:__tern_thread_func
   fun:mythread_wrapper
   fun:start_thread
   fun:clone
}
{
   <insert_a_suppression_name_here>
   Helgrind:Race
   fun:_ZN4tern11RRScheduler6wait_t4waitEv
   fun:_ZN4tern10RecorderRTINS_11RRSchedulerEE9threadEndEj
   fun:tern_thread_end
   fun:tern_pthread_exit
   fun:__tern_thread_func
   fun:mythread_wrapper
   fun:start_thread
   fun:clone
}
{
   <insert_a_suppression_name_here>
   Helgrind:Race
   fun:_ZN4tern11RRScheduler6wait_t4waitEv
   fun:_ZN4tern11RRScheduler4waitEPvj
   fun:_ZN4tern10RecorderRTINS_11RRSchedulerEE11pthreadJoinEjRimPPv
   fun:tern_pthread_join
   fun:pthread_join
   fun:main
}
{
   <insert_a_suppression_name_here>
   Helgrind:Race
   fun:_ZN4tern11RRScheduler6wait_t4waitEv
   fun:_ZN4tern10RecorderRTINS_11RRSchedulerEE9threadEndEj
   fun:tern_thread_end
   fun:tern_pthread_exit
   fun:__tern_thread_func
   fun:mythread_wrapper
   fun:start_thread
   fun:clone
}
{
   <insert_a_suppression_name_here>
   Helgrind:Race
   fun:_ZN4tern11RRScheduler6wait_t4waitEv
   fun:_ZN4tern10RecorderRTINS_11RRSchedulerEE9threadEndEj
   fun:tern_thread_end
   fun:tern_pthread_exit
   fun:__tern_thread_func
   fun:mythread_wrapper
   fun:start_thread
   fun:clone
}
{
   <insert_a_suppression_name_here>
   Helgrind:Race
   fun:_ZN4tern11RRScheduler7putTurnEb
   fun:_ZN4tern10RecorderRTINS_11RRSchedulerEE9threadEndEj
   fun:tern_thread_end
   fun:tern_pthread_exit
   fun:__tern_thread_func
   fun:mythread_wrapper
   fun:start_thread
   fun:clone
}
{
   <insert_a_suppression_name_here>
   Helgrind:Race
   fun:_ZN4tern11RRScheduler6signalEPvb
   fun:_ZN4tern11RRScheduler7putTurnEb
   fun:_ZN4tern10RecorderRTINS_11RRSchedulerEE9threadEndEj
   fun:tern_thread_end
   fun:tern_pthread_exit
   fun:__tern_thread_func
   fun:mythread_wrapper
   fun:start_thread
   fun:clone
}
{
   <insert_a_suppression_name_here>
   Helgrind:Race
   fun:_ZN4tern11RRScheduler6signalEPvb
   fun:_ZN4tern11RRScheduler7putTurnEb
   fun:_ZN4tern10RecorderRTINS_11RRSchedulerEE9threadEndEj
   fun:tern_thread_end
   fun:tern_pthread_exit
   fun:__tern_thread_func
   fun:mythread_wrapper
   fun:start_thread
   fun:clone
}
{
   <insert_a_suppression_name_here>
   Helgrind:Race
   fun:_ZN4tern11RRScheduler6signalEPvb
   fun:_ZN4tern11RRScheduler7putTurnEb
   fun:_ZN4tern10RecorderRTINS_11RRSchedulerEE9threadEndEj
   fun:tern_thread_end
   fun:tern_pthread_exit
   fun:__tern_thread_func
   fun:mythread_wrapper
   fun:start_thread
   fun:clone
}
{
   <insert_a_suppression_name_here>
   Helgrind:Race
   fun:_ZN4tern11RRScheduler6signalEPvb
   fun:_ZN4tern11RRScheduler7putTurnEb
   fun:_ZN4tern10RecorderRTINS_11RRSchedulerEE9threadEndEj
   fun:tern_thread_end
   fun:tern_pthread_exit
   fun:__tern_thread_func
   fun:mythread_wrapper
   fun:start_thread
   fun:clone
}
{
   <insert_a_suppression_name_here>
   Helgrind:Race
   fun:_ZNSt15_List_node_base9_M_unhookEv
   fun:_ZNSt4listIiSaIiEE5eraseESt14_List_iteratorIiE.clone.133
   fun:_ZN4tern11RRScheduler6signalEPvb
   fun:_ZN4tern11RRScheduler7putTurnEb
   fun:_ZN4tern10RecorderRTINS_11RRSchedulerEE9threadEndEj
   fun:tern_thread_end
   fun:tern_pthread_exit
   fun:__tern_thread_func
   fun:mythread_wrapper
   fun:start_thread
   fun:clone
}
{
   <insert_a_suppression_name_here>
   Helgrind:Race
   fun:_ZNSt15_List_node_base9_M_unhookEv
   fun:_ZNSt4listIiSaIiEE5eraseESt14_List_iteratorIiE.clone.133
   fun:_ZN4tern11RRScheduler6signalEPvb
   fun:_ZN4tern11RRScheduler7putTurnEb
   fun:_ZN4tern10RecorderRTINS_11RRSchedulerEE9threadEndEj
   fun:tern_thread_end
   fun:tern_pthread_exit
   fun:__tern_thread_func
   fun:mythread_wrapper
   fun:start_thread
   fun:clone
}
{
   <insert_a_suppression_name_here>
   Helgrind:Race
   fun:_ZNSt15_List_node_base9_M_unhookEv
   fun:_ZNSt4listIiSaIiEE5eraseESt14_List_iteratorIiE.clone.133
   fun:_ZN4tern11RRScheduler6signalEPvb
   fun:_ZN4tern11RRScheduler7putTurnEb
   fun:_ZN4tern10RecorderRTINS_11RRSchedulerEE9threadEndEj
   fun:tern_thread_end
   fun:tern_pthread_exit
   fun:__tern_thread_func
   fun:mythread_wrapper
   fun:start_thread
   fun:clone
}
{
   <insert_a_suppression_name_here>
   Helgrind:Race
   fun:_ZN4tern11RRScheduler6signalEPvb
   fun:_ZN4tern11RRScheduler7putTurnEb
   fun:_ZN4tern10RecorderRTINS_11RRSchedulerEE9threadEndEj
   fun:tern_thread_end
   fun:tern_pthread_exit
   fun:__tern_thread_func
   fun:mythread_wrapper
   fun:start_thread
   fun:clone
}
{
   <insert_a_suppression_name_here>
   Helgrind:Race
   fun:_ZN4tern11RRScheduler6signalEPvb
   fun:_ZN4tern11RRScheduler7putTurnEb
   fun:_ZN4tern10RecorderRTINS_11RRSchedulerEE9threadEndEj
   fun:tern_thread_end
   fun:tern_pthread_exit
   fun:__tern_thread_func
   fun:mythread_wrapper
   fun:start_thread
   fun:clone
}
{
   <insert_a_suppression_name_here>
   Helgrind:Race
   fun:_ZN4tern11RRScheduler6signalEPvb
   fun:_ZN4tern11RRScheduler7putTurnEb
   fun:_ZN4tern10RecorderRTINS_11RRSchedulerEE9threadEndEj
   fun:tern_thread_end
   fun:tern_pthread_exit
   fun:__tern_thread_func
   fun:mythread_wrapper
   fun:start_thread
   fun:clone
}
{
   <insert_a_suppression_name_here>
   Helgrind:Race
   fun:_ZN4tern11RRScheduler6signalEPvb
   fun:_ZN4tern11RRScheduler7putTurnEb
   fun:_ZN4tern10RecorderRTINS_11RRSchedulerEE9threadEndEj
   fun:tern_thread_end
   fun:tern_pthread_exit
   fun:__tern_thread_func
   fun:mythread_wrapper
   fun:start_thread
   fun:clone
}
{
   <insert_a_suppression_name_here>
   Helgrind:Race
   fun:_ZN4tern11RRScheduler6signalEPvb
   fun:_ZN4tern11RRScheduler7putTurnEb
   fun:_ZN4tern10RecorderRTINS_11RRSchedulerEE9threadEndEj
   fun:tern_thread_end
   fun:tern_pthread_exit
   fun:__tern_thread_func
   fun:mythread_wrapper
   fun:start_thread
   fun:clone
}
{
   <insert_a_suppression_name_here>
   Helgrind:Race
   fun:_ZN4tern11RRScheduler6signalEPvb
   fun:_ZN4tern11RRScheduler7putTurnEb
   fun:_ZN4tern10RecorderRTINS_11RRSchedulerEE9threadEndEj
   fun:tern_thread_end
   fun:tern_pthread_exit
   fun:__tern_thread_func
   fun:mythread_wrapper
   fun:start_thread
   fun:clone
}
{
   <insert_a_suppression_name_here>
   Helgrind:Race
   fun:_ZNSt3tr110_HashtableImmSaImESt9_IdentityImESt8equal_toImENS_4hashImEENS_8__detail18_Mod_range_hashingENS8_20_Default_ranged_hashENS8_20_Prime_rehash_policyELb0ELb1ELb1EE16_M_insert_bucketERKmmm
   fun:_ZN4tern11RRScheduler7putTurnEb
   fun:_ZN4tern10RecorderRTINS_11RRSchedulerEE9threadEndEj
   fun:tern_thread_end
   fun:tern_pthread_exit
   fun:__tern_thread_func
   fun:mythread_wrapper
   fun:start_thread
   fun:clone
}
{
   <insert_a_suppression_name_here>
   Helgrind:Race
   fun:_ZNSt3tr110_HashtableImSt4pairIKmiESaIS3_ESt10_Select1stIS3_ESt8equal_toImENS_4hashImEENS_8__detail18_Mod_range_hashingENSB_20_Default_ranged_hashENSB_20_Prime_rehash_policyELb0ELb0ELb1EE5eraseERS2_
   fun:_ZN4tern11RRScheduler7putTurnEb
   fun:_ZN4tern10RecorderRTINS_11RRSchedulerEE9threadEndEj
   fun:tern_thread_end
   fun:tern_pthread_exit
   fun:__tern_thread_func
   fun:mythread_wrapper
   fun:start_thread
   fun:clone
}
{
   <insert_a_suppression_name_here>
   Helgrind:Race
   fun:_ZNSt3tr110_HashtableImSt4pairIKmiESaIS3_ESt10_Select1stIS3_ESt8equal_toImENS_4hashImEENS_8__detail18_Mod_range_hashingENSB_20_Default_ranged_hashENSB_20_Prime_rehash_policyELb0ELb0ELb1EE5eraseERS2_
   fun:_ZN4tern11RRScheduler7putTurnEb
   fun:_ZN4tern10RecorderRTINS_11RRSchedulerEE9threadEndEj
   fun:tern_thread_end
   fun:tern_pthread_exit
   fun:__tern_thread_func
   fun:mythread_wrapper
   fun:start_thread
   fun:clone
}
{
   <insert_a_suppression_name_here>
   Helgrind:Race
   fun:_ZN4tern11RRScheduler7putTurnEb
   fun:_ZN4tern10RecorderRTINS_11RRSchedulerEE9threadEndEj
   fun:tern_thread_end
   fun:tern_pthread_exit
   fun:__tern_thread_func
   fun:mythread_wrapper
   fun:start_thread
   fun:clone
}
{
   <insert_a_suppression_name_here>
   Helgrind:Race
   fun:_ZN4tern11RRScheduler7putTurnEb
   fun:_ZN4tern10RecorderRTINS_11RRSchedulerEE9threadEndEj
   fun:tern_thread_end
   fun:tern_pthread_exit
   fun:__tern_thread_func
   fun:mythread_wrapper
   fun:start_thread
   fun:clone
}
{
   <insert_a_suppression_name_here>
   Helgrind:Race
   fun:_ZN4tern11RRScheduler7putTurnEb
   fun:_ZN4tern10RecorderRTINS_11RRSchedulerEE9threadEndEj
   fun:tern_thread_end
   fun:tern_pthread_exit
   fun:__tern_thread_func
   fun:mythread_wrapper
   fun:start_thread
   fun:clone
}
{
   <insert_a_suppression_name_here>
   Helgrind:Race
   fun:_ZN4tern11RRScheduler4nextEbb
   fun:_ZN4tern11RRScheduler7putTurnEb
   fun:_ZN4tern10RecorderRTINS_11RRSchedulerEE9threadEndEj
   fun:tern_thread_end
   fun:tern_pthread_exit
   fun:__tern_thread_func
   fun:mythread_wrapper
   fun:start_thread
   fun:clone
}
{
   <insert_a_suppression_name_here>
   Helgrind:Race
   fun:_ZN4tern11RRScheduler4nextEbb
   fun:_ZN4tern11RRScheduler7putTurnEb
   fun:_ZN4tern10RecorderRTINS_11RRSchedulerEE9threadEndEj
   fun:tern_thread_end
   fun:tern_pthread_exit
   fun:__tern_thread_func
   fun:mythread_wrapper
   fun:start_thread
   fun:clone
}
{
   <insert_a_suppression_name_here>
   Helgrind:Race
   fun:_ZN4tern11RRScheduler4nextEbb
   fun:_ZN4tern11RRScheduler7putTurnEb
   fun:_ZN4tern10RecorderRTINS_11RRSchedulerEE9threadEndEj
   fun:tern_thread_end
   fun:tern_pthread_exit
   fun:__tern_thread_func
   fun:mythread_wrapper
   fun:start_thread
   fun:clone
}
{
   <insert_a_suppression_name_here>
   Helgrind:Race
   fun:_ZN4tern11RRScheduler4nextEbb
   fun:_ZN4tern11RRScheduler7putTurnEb
   fun:_ZN4tern10RecorderRTINS_11RRSchedulerEE9threadEndEj
   fun:tern_thread_end
   fun:tern_pthread_exit
   fun:__tern_thread_func
   fun:mythread_wrapper
   fun:start_thread
   fun:clone
}
{
   <insert_a_suppression_name_here>
   Helgrind:Race
   fun:_ZN4tern11RRScheduler4nextEbb
   fun:_ZN4tern11RRScheduler7putTurnEb
   fun:_ZN4tern10RecorderRTINS_11RRSchedulerEE9threadEndEj
   fun:tern_thread_end
   fun:tern_pthread_exit
   fun:__tern_thread_func
   fun:mythread_wrapper
   fun:start_thread
   fun:clone
}
{
   <insert_a_suppression_name_here>
   Helgrind:Race
   fun:_ZN4tern11RRScheduler6wait_t4waitEv
   fun:_ZN4tern11RRScheduler4waitEPvj
   fun:_ZN4tern10RecorderRTINS_11RRSchedulerEE11pthreadJoinEjRimPPv
   fun:tern_pthread_join
   fun:pthread_join
   fun:main
}
{
   <insert_a_suppression_name_here>
   Helgrind:Race
   fun:_ZN4tern11RRScheduler4waitEPvj
   fun:_ZN4tern10RecorderRTINS_11RRSchedulerEE11pthreadJoinEjRimPPv
   fun:tern_pthread_join
   fun:pthread_join
   fun:main
}
{
   <insert_a_suppression_name_here>
   Helgrind:Race
   fun:_ZN4tern10RecorderRTINS_11RRSchedulerEE11pthreadJoinEjRimPPv
   fun:tern_pthread_join
   fun:pthread_join
   fun:main
}
{
   <insert_a_suppression_name_here>
   Helgrind:Race
   fun:_ZN4tern10RecorderRTINS_11RRSchedulerEE11pthreadJoinEjRimPPv
   fun:tern_pthread_join
   fun:pthread_join
   fun:main
}
{
   <insert_a_suppression_name_here>
   Helgrind:Race
   fun:_ZN4tern11RRScheduler7putTurnEb
   fun:_ZN4tern10RecorderRTINS_11RRSchedulerEE11pthreadJoinEjRimPPv
   fun:tern_pthread_join
   fun:pthread_join
   fun:main
}
{
   <insert_a_suppression_name_here>
   Helgrind:Race
   fun:_ZN4tern11RRScheduler7putTurnEb
   fun:_ZN4tern10RecorderRTINS_11RRSchedulerEE11pthreadJoinEjRimPPv
   fun:tern_pthread_join
   fun:pthread_join
   fun:main
}
{
   <insert_a_suppression_name_here>
   Helgrind:Race
   fun:_ZN4tern11RRScheduler7putTurnEb
   fun:_ZN4tern10RecorderRTINS_11RRSchedulerEE11pthreadJoinEjRimPPv
   fun:tern_pthread_join
   fun:pthread_join
   fun:main
}
{
   <insert_a_suppression_name_here>
   Helgrind:Race
   fun:_ZN4tern11RRScheduler7putTurnEb
   fun:_ZN4tern10RecorderRTINS_11RRSchedulerEE11pthreadJoinEjRimPPv
   fun:tern_pthread_join
   fun:pthread_join
   fun:main
}
{
   <insert_a_suppression_name_here>
   Helgrind:Race
   fun:_ZN4tern11RRScheduler7putTurnEb
   fun:_ZN4tern10RecorderRTINS_11RRSchedulerEE11pthreadJoinEjRimPPv
   fun:tern_pthread_join
   fun:pthread_join
   fun:main
}
{
   <insert_a_suppression_name_here>
   Helgrind:Race
   fun:_ZN4tern11RRScheduler7putTurnEb
   fun:_ZN4tern10RecorderRTINS_11RRSchedulerEE11pthreadJoinEjRimPPv
   fun:tern_pthread_join
   fun:pthread_join
   fun:main
}
{
   <insert_a_suppression_name_here>
   Helgrind:Race
   fun:_ZN4tern11RRScheduler7putTurnEb
   fun:_ZN4tern10RecorderRTINS_11RRSchedulerEE11pthreadJoinEjRimPPv
   fun:tern_pthread_join
   fun:pthread_join
   fun:main
}
{
   <insert_a_suppression_name_here>
   Helgrind:Race
   fun:_ZN4tern11RRScheduler7putTurnEb
   fun:_ZN4tern10RecorderRTINS_11RRSchedulerEE11pthreadJoinEjRimPPv
   fun:tern_pthread_join
   fun:pthread_join
   fun:main
}
{
   <insert_a_suppression_name_here>
   Helgrind:Race
   fun:_ZN4tern11RRScheduler7putTurnEb
   fun:_ZN4tern10RecorderRTINS_11RRSchedulerEE11pthreadJoinEjRimPPv
   fun:tern_pthread_join
   fun:pthread_join
   fun:main
}
{
   <insert_a_suppression_name_here>
   Helgrind:Race
   fun:_ZN4tern11RRScheduler7putTurnEb
   fun:_ZN4tern10RecorderRTINS_11RRSchedulerEE11pthreadJoinEjRimPPv
   fun:tern_pthread_join
   fun:pthread_join
   fun:main
}
{
   <insert_a_suppression_name_here>
   Helgrind:Race
   fun:_ZN4tern11RRScheduler7putTurnEb
   fun:_ZN4tern10RecorderRTINS_11RRSchedulerEE11pthreadJoinEjRimPPv
   fun:tern_pthread_join
   fun:pthread_join
   fun:main
}
{
   <insert_a_suppression_name_here>
   Helgrind:Race
   fun:_ZNSt3tr110_HashtableImmSaImESt9_IdentityImESt8equal_toImENS_4hashImEENS_8__detail18_Mod_range_hashingENS8_20_Default_ranged_hashENS8_20_Prime_rehash_policyELb0ELb1ELb1EE16_M_insert_bucketERKmmm
   fun:_ZN4tern11RRScheduler7putTurnEb
   fun:_ZN4tern10RecorderRTINS_11RRSchedulerEE9threadEndEj
   fun:tern_thread_end
   fun:tern_pthread_exit
   fun:__tern_thread_func
   fun:mythread_wrapper
   fun:start_thread
   fun:clone
}
{
   <insert_a_suppression_name_here>
   Helgrind:Race
   fun:_ZNSt3tr110_HashtableImmSaImESt9_IdentityImESt8equal_toImENS_4hashImEENS_8__detail18_Mod_range_hashingENS8_20_Default_ranged_hashENS8_20_Prime_rehash_policyELb0ELb1ELb1EE16_M_insert_bucketERKmmm
   fun:_ZN4tern11RRScheduler7putTurnEb
   fun:_ZN4tern10RecorderRTINS_11RRSchedulerEE9threadEndEj
   fun:tern_thread_end
   fun:tern_pthread_exit
   fun:__tern_thread_func
   fun:mythread_wrapper
   fun:start_thread
   fun:clone
}
{
   <insert_a_suppression_name_here>
   Helgrind:Race
   fun:_ZN4tern11RRScheduler7putTurnEb
   fun:_ZN4tern10RecorderRTINS_11RRSchedulerEE9threadEndEj
   fun:tern_thread_end
   fun:tern_pthread_exit
   fun:__tern_thread_func
   fun:mythread_wrapper
   fun:start_thread
   fun:clone
}
{
   <insert_a_suppression_name_here>
   Helgrind:Race
   fun:_ZN4tern11RRScheduler4nextEbb
   fun:_ZN4tern11RRScheduler7putTurnEb
   fun:_ZN4tern10RecorderRTINS_11RRSchedulerEE9threadEndEj
   fun:tern_thread_end
   fun:tern_pthread_exit
   fun:__tern_thread_func
   fun:mythread_wrapper
   fun:start_thread
   fun:clone
}
{
   <insert_a_suppression_name_here>
   Helgrind:Race
   fun:_ZN4tern11RRScheduler4nextEbb
   fun:_ZN4tern11RRScheduler7putTurnEb
   fun:_ZN4tern10RecorderRTINS_11RRSchedulerEE9threadEndEj
   fun:tern_thread_end
   fun:tern_pthread_exit
   fun:__tern_thread_func
   fun:mythread_wrapper
   fun:start_thread
   fun:clone
}
{
   <insert_a_suppression_name_here>
   Helgrind:Race
   fun:_ZN4tern11RRScheduler6wait_t4waitEv
   fun:_ZN4tern10RecorderRTINS_11RRSchedulerEE10idle_sleepEv
   fun:tern_idle_sleep
   fun:idle_thread
   fun:__tern_thread_func
   fun:mythread_wrapper
   fun:start_thread
   fun:clone
}
{
   <insert_a_suppression_name_here>
   Helgrind:Race
   fun:_ZN4tern11RRScheduler6wait_t4waitEv
   fun:_ZN4tern10RecorderRTINS_11RRSchedulerEE10idle_sleepEv
   fun:tern_idle_sleep
   fun:idle_thread
   fun:__tern_thread_func
   fun:mythread_wrapper
   fun:start_thread
   fun:clone
}
{
   <insert_a_suppression_name_here>
   Helgrind:Race
   fun:_ZN4tern11RRScheduler7putTurnEb
   fun:tern_idle_sleep
   fun:idle_thread
   fun:__tern_thread_func
   fun:mythread_wrapper
   fun:start_thread
   fun:clone
}
{
   <insert_a_suppression_name_here>
   Helgrind:Race
   fun:_ZN4tern11RRScheduler7putTurnEb
   fun:tern_idle_sleep
   fun:idle_thread
   fun:__tern_thread_func
   fun:mythread_wrapper
   fun:start_thread
   fun:clone
}
{
   <insert_a_suppression_name_here>
   Helgrind:Race
   fun:_ZN4tern11RRScheduler7putTurnEb
   fun:tern_idle_sleep
   fun:idle_thread
   fun:__tern_thread_func
   fun:mythread_wrapper
   fun:start_thread
   fun:clone
}
{
   <insert_a_suppression_name_here>
   Helgrind:Race
   fun:_ZN4tern11RRScheduler7putTurnEb
   fun:tern_idle_sleep
   fun:idle_thread
   fun:__tern_thread_func
   fun:mythread_wrapper
   fun:start_thread
   fun:clone
}
{
   <insert_a_suppression_name_here>
   Helgrind:Race
   fun:_ZN4tern11RRScheduler7putTurnEb
   fun:tern_idle_sleep
   fun:idle_thread
   fun:__tern_thread_func
   fun:mythread_wrapper
   fun:start_thread
   fun:clone
}
{
   <insert_a_suppression_name_here>
   Helgrind:Race
   fun:_ZN4tern11RRScheduler7putTurnEb
   fun:tern_idle_sleep
   fun:idle_thread
   fun:__tern_thread_func
   fun:mythread_wrapper
   fun:start_thread
   fun:clone
}
{
   <insert_a_suppression_name_here>
   Helgrind:Race
   fun:_ZN4tern11RRScheduler12fireTimeoutsEv
   fun:_ZN4tern11RRScheduler12incTurnCountEv
   fun:_ZN4tern10RecorderRTINS_11RRSchedulerEE13pthreadCreateEjRiPmP14pthread_attr_tPFPvS7_ES7_
   fun:tern_pthread_create
   fun:pthread_create
   fun:main
}
{
   <insert_a_suppression_name_here>
   Helgrind:Race
   fun:_ZN4tern11RRScheduler12fireTimeoutsEv
   fun:_ZN4tern11RRScheduler12incTurnCountEv
   fun:_ZN4tern10RecorderRTINS_11RRSchedulerEE13pthreadCreateEjRiPmP14pthread_attr_tPFPvS7_ES7_
   fun:tern_pthread_create
   fun:pthread_create
   fun:main
}
{
   <insert_a_suppression_name_here>
   Helgrind:Race
   fun:_ZN4tern11RRScheduler12fireTimeoutsEv
   fun:_ZN4tern11RRScheduler12incTurnCountEv
   fun:_ZN4tern10RecorderRTINS_11RRSchedulerEE13pthreadCreateEjRiPmP14pthread_attr_tPFPvS7_ES7_
   fun:tern_pthread_create
   fun:pthread_create
   fun:main
}
{
   <insert_a_suppression_name_here>
   Helgrind:Race
   fun:_ZN4tern11RRScheduler12fireTimeoutsEv
   fun:_ZN4tern11RRScheduler12incTurnCountEv
   fun:_ZN4tern10RecorderRTINS_11RRSchedulerEE13pthreadCreateEjRiPmP14pthread_attr_tPFPvS7_ES7_
   fun:tern_pthread_create
   fun:pthread_create
   fun:main
}
{
   <insert_a_suppression_name_here>
   Helgrind:Race
   fun:_ZN4tern11RRScheduler7putTurnEb
   fun:_ZN4tern10RecorderRTINS_11RRSchedulerEE16pthreadMutexLockEjRiP15pthread_mutex_t
   fun:tern_pthread_mutex_lock
   fun:pthread_mutex_lock
   fun:_Z13thread_func_1Pv
   fun:__tern_thread_func
   fun:mythread_wrapper
   fun:start_thread
   fun:clone
}
{
   <insert_a_suppression_name_here>
   Helgrind:Race
   fun:_ZN4tern11RRScheduler7putTurnEb
   fun:_ZN4tern10RecorderRTINS_11RRSchedulerEE16pthreadMutexLockEjRiP15pthread_mutex_t
   fun:tern_pthread_mutex_lock
   fun:pthread_mutex_lock
   fun:_Z13thread_func_1Pv
   fun:__tern_thread_func
   fun:mythread_wrapper
   fun:start_thread
   fun:clone
}
{
   <insert_a_suppression_name_here>
   Helgrind:Race
   fun:_ZN4tern11RRScheduler7putTurnEb
   fun:_ZN4tern10RecorderRTINS_11RRSchedulerEE16pthreadMutexLockEjRiP15pthread_mutex_t
   fun:tern_pthread_mutex_lock
   fun:pthread_mutex_lock
   fun:_Z13thread_func_1Pv
   fun:__tern_thread_func
   fun:mythread_wrapper
   fun:start_thread
   fun:clone
}
{
   <insert_a_suppression_name_here>
   Helgrind:Race
   fun:_ZN4tern11RRScheduler7putTurnEb
   fun:_ZN4tern10RecorderRTINS_11RRSchedulerEE16pthreadMutexLockEjRiP15pthread_mutex_t
   fun:tern_pthread_mutex_lock
   fun:pthread_mutex_lock
   fun:_Z13thread_func_1Pv
   fun:__tern_thread_func
   fun:mythread_wrapper
   fun:start_thread
   fun:clone
}
{
   <insert_a_suppression_name_here>
   Helgrind:Race
   fun:_ZN4tern11RRScheduler7putTurnEb
   fun:_ZN4tern10RecorderRTINS_11RRSchedulerEE16pthreadMutexLockEjRiP15pthread_mutex_t
   fun:tern_pthread_mutex_lock
   fun:pthread_mutex_lock
   fun:_Z13thread_func_1Pv
   fun:__tern_thread_func
   fun:mythread_wrapper
   fun:start_thread
   fun:clone
}
{
   <insert_a_suppression_name_here>
   Helgrind:Race
   fun:_ZN4tern11RRScheduler7putTurnEb
   fun:_ZN4tern10RecorderRTINS_11RRSchedulerEE16pthreadMutexLockEjRiP15pthread_mutex_t
   fun:tern_pthread_mutex_lock
   fun:pthread_mutex_lock
   fun:_Z13thread_func_1Pv
   fun:__tern_thread_func
   fun:mythread_wrapper
   fun:start_thread
   fun:clone
}
{
   <insert_a_suppression_name_here>
   Helgrind:Race
   fun:_ZN4tern11RRScheduler7putTurnEb
   fun:_ZN4tern10RecorderRTINS_11RRSchedulerEE16pthreadMutexLockEjRiP15pthread_mutex_t
   fun:tern_pthread_mutex_lock
   fun:pthread_mutex_lock
   fun:_Z13thread_func_1Pv
   fun:__tern_thread_func
   fun:mythread_wrapper
   fun:start_thread
   fun:clone
}
{
   <insert_a_suppression_name_here>
   Helgrind:Race
   fun:_ZN4tern11RRScheduler7putTurnEb
   fun:_ZN4tern10RecorderRTINS_11RRSchedulerEE16pthreadMutexLockEjRiP15pthread_mutex_t
   fun:tern_pthread_mutex_lock
   fun:pthread_mutex_lock
   fun:_Z13thread_func_1Pv
   fun:__tern_thread_func
   fun:mythread_wrapper
   fun:start_thread
   fun:clone
}
{
   <insert_a_suppression_name_here>
   Helgrind:Race
   fun:_ZN4tern11RRScheduler7putTurnEb
   fun:_ZN4tern10RecorderRTINS_11RRSchedulerEE16pthreadMutexLockEjRiP15pthread_mutex_t
   fun:tern_pthread_mutex_lock
   fun:pthread_mutex_lock
   fun:_Z13thread_func_1Pv
   fun:__tern_thread_func
   fun:mythread_wrapper
   fun:start_thread
   fun:clone
}
{
   <insert_a_suppression_name_here>
   Helgrind:Race
   fun:_ZN4tern11RRScheduler7putTurnEb
   fun:_ZN4tern10RecorderRTINS_11RRSchedulerEE16pthreadMutexLockEjRiP15pthread_mutex_t
   fun:tern_pthread_mutex_lock
   fun:pthread_mutex_lock
   fun:_Z13thread_func_1Pv
   fun:__tern_thread_func
   fun:mythread_wrapper
   fun:start_thread
   fun:clone
}
{
   <insert_a_suppression_name_here>
   Helgrind:Race
   fun:_ZN4tern11RRScheduler7putTurnEb
   fun:_ZN4tern10RecorderRTINS_11RRSchedulerEE16pthreadMutexLockEjRiP15pthread_mutex_t
   fun:tern_pthread_mutex_lock
   fun:pthread_mutex_lock
   fun:_Z13thread_func_1Pv
   fun:__tern_thread_func
   fun:mythread_wrapper
   fun:start_thread
   fun:clone
}
{
   <insert_a_suppression_name_here>
   Helgrind:Race
   fun:_ZN4tern11RRScheduler12nextRunnableEb
   fun:_ZN4tern11RRScheduler4nextEbb
   fun:_ZN4tern11RRScheduler7putTurnEb
   fun:_ZN4tern10RecorderRTINS_11RRSchedulerEE16pthreadMutexLockEjRiP15pthread_mutex_t
   fun:tern_pthread_mutex_lock
   fun:pthread_mutex_lock
   fun:_Z13thread_func_1Pv
   fun:__tern_thread_func
   fun:mythread_wrapper
   fun:start_thread
   fun:clone
}
{
   <insert_a_suppression_name_here>
   Helgrind:Race
   fun:_ZN4tern10Serializer12incTurnCountEv
   fun:_ZN4tern11RRScheduler12incTurnCountEv
   fun:_ZN4tern11RRScheduler4waitEPvj
   fun:_ZN4tern10RecorderRTINS_11RRSchedulerEE11pthreadJoinEjRimPPv
   fun:tern_pthread_join
   fun:pthread_join
   fun:main
}
{
   <insert_a_suppression_name_here>
   Helgrind:Race
   fun:_ZN4tern10Serializer12incTurnCountEv
   fun:_ZN4tern11RRScheduler12incTurnCountEv
   fun:_ZN4tern11RRScheduler4waitEPvj
   fun:_ZN4tern10RecorderRTINS_11RRSchedulerEE11pthreadJoinEjRimPPv
   fun:tern_pthread_join
   fun:pthread_join
   fun:main
}
{
   <insert_a_suppression_name_here>
   Helgrind:Race
   fun:_ZN4tern11RRScheduler12nextRunnableEb
   fun:_ZN4tern11RRScheduler4nextEbb
   fun:_ZN4tern11RRScheduler4waitEPvj
   fun:_ZN4tern10RecorderRTINS_11RRSchedulerEE11pthreadJoinEjRimPPv
   fun:tern_pthread_join
   fun:pthread_join
   fun:main
}
{
   <insert_a_suppression_name_here>
   Helgrind:Race
   fun:_ZN4tern11RRScheduler12nextRunnableEb
   fun:_ZN4tern11RRScheduler4nextEbb
   fun:_ZN4tern11RRScheduler4waitEPvj
   fun:_ZN4tern10RecorderRTINS_11RRSchedulerEE11pthreadJoinEjRimPPv
   fun:tern_pthread_join
   fun:pthread_join
   fun:main
}
{
   <insert_a_suppression_name_here>
   Helgrind:Race
   fun:_ZN4tern10Serializer12incTurnCountEv
   fun:_ZN4tern11RRScheduler12incTurnCountEv
   fun:_ZN4tern10RecorderRTINS_11RRSchedulerEE18pthreadMutexUnlockEjRiP15pthread_mutex_t
   fun:tern_pthread_mutex_unlock
   fun:pthread_mutex_unlock
   fun:_Z13thread_func_1Pv
   fun:__tern_thread_func
   fun:mythread_wrapper
   fun:start_thread
   fun:clone
}
{
   <insert_a_suppression_name_here>
   Helgrind:Race
   fun:_ZN4tern10Serializer12incTurnCountEv
   fun:_ZN4tern11RRScheduler12incTurnCountEv
   fun:_ZN4tern10RecorderRTINS_11RRSchedulerEE18pthreadMutexUnlockEjRiP15pthread_mutex_t
   fun:tern_pthread_mutex_unlock
   fun:pthread_mutex_unlock
   fun:_Z13thread_func_1Pv
   fun:__tern_thread_func
   fun:mythread_wrapper
   fun:start_thread
   fun:clone
}
{
   <insert_a_suppression_name_here>
   Helgrind:Race
   fun:_ZN4tern11RRScheduler12fireTimeoutsEv
   fun:_ZN4tern11RRScheduler12incTurnCountEv
   fun:_ZN4tern10RecorderRTINS_11RRSchedulerEE18pthreadMutexUnlockEjRiP15pthread_mutex_t
   fun:tern_pthread_mutex_unlock
   fun:pthread_mutex_unlock
   fun:_Z13thread_func_1Pv
   fun:__tern_thread_func
   fun:mythread_wrapper
   fun:start_thread
   fun:clone
}
{
   <insert_a_suppression_name_here>
   Helgrind:Race
   fun:_ZN4tern11RRScheduler12nextRunnableEb
   fun:_ZN4tern11RRScheduler4nextEbb
   fun:_ZN4tern11RRScheduler7putTurnEb
   fun:_ZN4tern10RecorderRTINS_11RRSchedulerEE18pthreadMutexUnlockEjRiP15pthread_mutex_t
   fun:tern_pthread_mutex_unlock
   fun:pthread_mutex_unlock
   fun:_Z13thread_func_1Pv
   fun:__tern_thread_func
   fun:mythread_wrapper
   fun:start_thread
   fun:clone
}
{
   <insert_a_suppression_name_here>
   Helgrind:Race
   fun:_ZN4tern11RRScheduler12nextRunnableEb
   fun:_ZN4tern11RRScheduler4nextEbb
   fun:_ZN4tern11RRScheduler7putTurnEb
   fun:_ZN4tern10RecorderRTINS_11RRSchedulerEE18pthreadMutexUnlockEjRiP15pthread_mutex_t
   fun:tern_pthread_mutex_unlock
   fun:pthread_mutex_unlock
   fun:_Z13thread_func_1Pv
   fun:__tern_thread_func
   fun:mythread_wrapper
   fun:start_thread
   fun:clone
}
{
   <insert_a_suppression_name_here>
   Helgrind:Race
   fun:_ZN4tern11RRScheduler12nextRunnableEb
   fun:_ZN4tern11RRScheduler4nextEbb
   fun:_ZN4tern11RRScheduler7putTurnEb
   fun:_ZN4tern10RecorderRTINS_11RRSchedulerEE18pthreadMutexUnlockEjRiP15pthread_mutex_t
   fun:tern_pthread_mutex_unlock
   fun:pthread_mutex_unlock
   fun:_Z13thread_func_1Pv
   fun:__tern_thread_func
   fun:mythread_wrapper
   fun:start_thread
   fun:clone
}
{
   <insert_a_suppression_name_here>
   Helgrind:Race
   fun:_ZN4tern11RRScheduler4nextEbb
   fun:_ZN4tern11RRScheduler7putTurnEb
   fun:_ZN4tern10RecorderRTINS_11RRSchedulerEE18pthreadMutexUnlockEjRiP15pthread_mutex_t
   fun:tern_pthread_mutex_unlock
   fun:pthread_mutex_unlock
   fun:_Z13thread_func_1Pv
   fun:__tern_thread_func
   fun:mythread_wrapper
   fun:start_thread
   fun:clone
}
{
   <insert_a_suppression_name_here>
   Helgrind:Race
   fun:_ZN4tern11RRScheduler6wait_t4postEv
   fun:_ZN4tern11RRScheduler7putTurnEb
   fun:_ZN4tern10RecorderRTINS_11RRSchedulerEE18pthreadMutexUnlockEjRiP15pthread_mutex_t
   fun:tern_pthread_mutex_unlock
   fun:pthread_mutex_unlock
   fun:_Z13thread_func_1Pv
   fun:__tern_thread_func
   fun:mythread_wrapper
   fun:start_thread
   fun:clone
}
{
   <insert_a_suppression_name_here>
   Helgrind:Race
   fun:_ZN4tern10Serializer12incTurnCountEv
   fun:_ZN4tern11RRScheduler12incTurnCountEv
   fun:_ZN4tern10RecorderRTINS_11RRSchedulerEE9threadEndEj
   fun:tern_thread_end
   fun:tern_pthread_exit
   fun:__tern_thread_func
   fun:mythread_wrapper
   fun:start_thread
   fun:clone
}
{
   <insert_a_suppression_name_here>
   Helgrind:Race
   fun:_ZN4tern10Serializer12incTurnCountEv
   fun:_ZN4tern11RRScheduler12incTurnCountEv
   fun:_ZN4tern10RecorderRTINS_11RRSchedulerEE9threadEndEj
   fun:tern_thread_end
   fun:tern_pthread_exit
   fun:__tern_thread_func
   fun:mythread_wrapper
   fun:start_thread
   fun:clone
}
{
   <insert_a_suppression_name_here>
   Helgrind:Race
   fun:_ZN4tern11RRScheduler12fireTimeoutsEv
   fun:_ZN4tern11RRScheduler12incTurnCountEv
   fun:_ZN4tern10RecorderRTINS_11RRSchedulerEE9threadEndEj
   fun:tern_thread_end
   fun:tern_pthread_exit
   fun:__tern_thread_func
   fun:mythread_wrapper
   fun:start_thread
   fun:clone
}
{
   <insert_a_suppression_name_here>
   Helgrind:Race
   fun:_ZN4tern11RRScheduler12fireTimeoutsEv
   fun:_ZN4tern11RRScheduler12incTurnCountEv
   fun:_ZN4tern10RecorderRTINS_11RRSchedulerEE9threadEndEj
   fun:tern_thread_end
   fun:tern_pthread_exit
   fun:__tern_thread_func
   fun:mythread_wrapper
   fun:start_thread
   fun:clone
}
{
   <insert_a_suppression_name_here>
   Helgrind:Race
   fun:_ZN4tern11RRScheduler12fireTimeoutsEv
   fun:_ZN4tern11RRScheduler12incTurnCountEv
   fun:_ZN4tern10RecorderRTINS_11RRSchedulerEE9threadEndEj
   fun:tern_thread_end
   fun:tern_pthread_exit
   fun:__tern_thread_func
   fun:mythread_wrapper
   fun:start_thread
   fun:clone
}
{
   <insert_a_suppression_name_here>
   Helgrind:Race
   fun:_ZN4tern11RRScheduler12fireTimeoutsEv
   fun:_ZN4tern11RRScheduler12incTurnCountEv
   fun:_ZN4tern10RecorderRTINS_11RRSchedulerEE9threadEndEj
   fun:tern_thread_end
   fun:tern_pthread_exit
   fun:__tern_thread_func
   fun:mythread_wrapper
   fun:start_thread
   fun:clone
}
{
   <insert_a_suppression_name_here>
   Helgrind:Race
   fun:_ZN4tern11RRScheduler12fireTimeoutsEv
   fun:_ZN4tern11RRScheduler12incTurnCountEv
   fun:_ZN4tern10RecorderRTINS_11RRSchedulerEE9threadEndEj
   fun:tern_thread_end
   fun:tern_pthread_exit
   fun:__tern_thread_func
   fun:mythread_wrapper
   fun:start_thread
   fun:clone
}
{
   <insert_a_suppression_name_here>
   Helgrind:Race
   fun:_ZN4tern11RRScheduler12nextRunnableEb
   fun:_ZN4tern11RRScheduler4nextEbb
   fun:_ZN4tern11RRScheduler7putTurnEb
   fun:_ZN4tern10RecorderRTINS_11RRSchedulerEE9threadEndEj
   fun:tern_thread_end
   fun:tern_pthread_exit
   fun:__tern_thread_func
   fun:mythread_wrapper
   fun:start_thread
   fun:clone
}
{
   <insert_a_suppression_name_here>
   Helgrind:Race
   fun:_ZN4tern11RRScheduler12nextRunnableEb
   fun:_ZN4tern11RRScheduler4nextEbb
   fun:_ZN4tern11RRScheduler7putTurnEb
   fun:_ZN4tern10RecorderRTINS_11RRSchedulerEE9threadEndEj
   fun:tern_thread_end
   fun:tern_pthread_exit
   fun:__tern_thread_func
   fun:mythread_wrapper
   fun:start_thread
   fun:clone
}
{
   <insert_a_suppression_name_here>
   Helgrind:Race
   fun:_ZN4tern11RRScheduler12nextRunnableEb
   fun:_ZN4tern11RRScheduler4nextEbb
   fun:_ZN4tern11RRScheduler7putTurnEb
   fun:_ZN4tern10RecorderRTINS_11RRSchedulerEE9threadEndEj
   fun:tern_thread_end
   fun:tern_pthread_exit
   fun:__tern_thread_func
   fun:mythread_wrapper
   fun:start_thread
   fun:clone
}
{
   <insert_a_suppression_name_here>
   Helgrind:Race
   fun:_ZN4tern11RRScheduler6wait_t4postEv
   fun:_ZN4tern11RRScheduler7putTurnEb
   fun:_ZN4tern10RecorderRTINS_11RRSchedulerEE9threadEndEj
   fun:tern_thread_end
   fun:tern_pthread_exit
   fun:__tern_thread_func
   fun:mythread_wrapper
   fun:start_thread
   fun:clone
}
{
   <insert_a_suppression_name_here>
   Helgrind:Race
   fun:_ZN4tern10Serializer12incTurnCountEv
   fun:_ZN4tern11RRScheduler12incTurnCountEv
   fun:_ZN4tern10RecorderRTINS_11RRSchedulerEE11pthreadJoinEjRimPPv
   fun:tern_pthread_join
   fun:pthread_join
   fun:main
}
{
   <insert_a_suppression_name_here>
   Helgrind:Race
   fun:_ZN4tern10Serializer12incTurnCountEv
   fun:_ZN4tern11RRScheduler12incTurnCountEv
   fun:_ZN4tern10RecorderRTINS_11RRSchedulerEE11pthreadJoinEjRimPPv
   fun:tern_pthread_join
   fun:pthread_join
   fun:main
}
{
   <insert_a_suppression_name_here>
   Helgrind:Race
   fun:_ZN4tern11RRScheduler12nextRunnableEb
   fun:_ZN4tern11RRScheduler4nextEbb
   fun:_ZN4tern11RRScheduler7putTurnEb
   fun:_ZN4tern10RecorderRTINS_11RRSchedulerEE11pthreadJoinEjRimPPv
   fun:tern_pthread_join
   fun:pthread_join
   fun:main
}
{
   <insert_a_suppression_name_here>
   Helgrind:Race
   fun:_ZN4tern11RRScheduler12nextRunnableEb
   fun:_ZN4tern11RRScheduler4nextEbb
   fun:_ZN4tern11RRScheduler7putTurnEb
   fun:_ZN4tern10RecorderRTINS_11RRSchedulerEE11pthreadJoinEjRimPPv
   fun:tern_pthread_join
   fun:pthread_join
   fun:main
}
{
   <insert_a_suppression_name_here>
   Helgrind:Race
   fun:_ZN4tern11RRScheduler6wait_t4postEv
   fun:_ZN4tern11RRScheduler7putTurnEb
   fun:_ZN4tern10RecorderRTINS_11RRSchedulerEE11pthreadJoinEjRimPPv
   fun:tern_pthread_join
   fun:pthread_join
   fun:main
}
{
   <insert_a_suppression_name_here>
   Helgrind:Race
   fun:_ZN4tern11RRScheduler6wait_t4waitEv
   fun:_ZN4tern10RecorderRTINS_11RRSchedulerEE11pthreadJoinEjRimPPv
   fun:tern_pthread_join
   fun:__tern_prog_end
   fun:__run_exit_handlers
   fun:exit
   fun:(below main)
}
{
   <insert_a_suppression_name_here>
   Helgrind:Race
   fun:_ZN4tern11RRScheduler6wait_t4waitEv
   fun:_ZN4tern10RecorderRTINS_11RRSchedulerEE11pthreadJoinEjRimPPv
   fun:tern_pthread_join
   fun:__tern_prog_end
   fun:__run_exit_handlers
   fun:exit
   fun:(below main)
}
{
   <insert_a_suppression_name_here>
   Helgrind:Race
   fun:_ZN4tern11RRScheduler4waitEPvj
   fun:_ZN4tern10RecorderRTINS_11RRSchedulerEE11pthreadJoinEjRimPPv
   fun:tern_pthread_join
   fun:__tern_prog_end
   fun:__run_exit_handlers
   fun:exit
   fun:(below main)
}
{
   <insert_a_suppression_name_here>
   Helgrind:Race
   fun:_ZN4tern10Serializer12incTurnCountEv
   fun:_ZN4tern11RRScheduler12incTurnCountEv
   fun:_ZN4tern10RecorderRTINS_11RRSchedulerEE10idle_sleepEv
   fun:tern_idle_sleep
   fun:idle_thread
   fun:__tern_thread_func
   fun:mythread_wrapper
   fun:start_thread
   fun:clone
}
{
   <insert_a_suppression_name_here>
   Helgrind:Race
   fun:_ZN4tern10Serializer12incTurnCountEv
   fun:_ZN4tern11RRScheduler12incTurnCountEv
   fun:_ZN4tern10RecorderRTINS_11RRSchedulerEE10idle_sleepEv
   fun:tern_idle_sleep
   fun:idle_thread
   fun:__tern_thread_func
   fun:mythread_wrapper
   fun:start_thread
   fun:clone
}
{
   <insert_a_suppression_name_here>
   Helgrind:Race
   fun:_ZN4tern11RRScheduler12fireTimeoutsEv
   fun:_ZN4tern11RRScheduler12incTurnCountEv
   fun:_ZN4tern10RecorderRTINS_11RRSchedulerEE10idle_sleepEv
   fun:tern_idle_sleep
   fun:idle_thread
   fun:__tern_thread_func
   fun:mythread_wrapper
   fun:start_thread
   fun:clone
}
{
   <insert_a_suppression_name_here>
   Helgrind:Race
   fun:_ZN4tern11RRScheduler12fireTimeoutsEv
   fun:_ZN4tern11RRScheduler12incTurnCountEv
   fun:_ZN4tern10RecorderRTINS_11RRSchedulerEE10idle_sleepEv
   fun:tern_idle_sleep
   fun:idle_thread
   fun:__tern_thread_func
   fun:mythread_wrapper
   fun:start_thread
   fun:clone
}
{
   <insert_a_suppression_name_here>
   Helgrind:Race
   fun:_ZN4tern11RRScheduler12fireTimeoutsEv
   fun:_ZN4tern11RRScheduler12incTurnCountEv
   fun:_ZN4tern10RecorderRTINS_11RRSchedulerEE10idle_sleepEv
   fun:tern_idle_sleep
   fun:idle_thread
   fun:__tern_thread_func
   fun:mythread_wrapper
   fun:start_thread
   fun:clone
}
{
   <insert_a_suppression_name_here>
   Helgrind:Race
   fun:_ZN4tern11RRScheduler12fireTimeoutsEv
   fun:_ZN4tern11RRScheduler12incTurnCountEv
   fun:_ZN4tern10RecorderRTINS_11RRSchedulerEE10idle_sleepEv
   fun:tern_idle_sleep
   fun:idle_thread
   fun:__tern_thread_func
   fun:mythread_wrapper
   fun:start_thread
   fun:clone
}
{
   <insert_a_suppression_name_here>
   Helgrind:Race
   fun:_ZN4tern11RRScheduler4waitEPvj
   fun:_ZN4tern10RecorderRTINS_11RRSchedulerEE11pthreadJoinEjRimPPv
   fun:tern_pthread_join
   fun:__tern_prog_end
   fun:__run_exit_handlers
   fun:exit
   fun:(below main)
}
{
   <insert_a_suppression_name_here>
   Helgrind:Race
   fun:_ZN4tern10RecorderRTINS_11RRSchedulerEE11pthreadJoinEjRimPPv
   fun:tern_pthread_join
   fun:__tern_prog_end
   fun:__run_exit_handlers
   fun:exit
   fun:(below main)
}
{
   <insert_a_suppression_name_here>
   Helgrind:Race
   fun:_ZN4tern10RecorderRTINS_11RRSchedulerEE11pthreadJoinEjRimPPv
   fun:tern_pthread_join
   fun:__tern_prog_end
   fun:__run_exit_handlers
   fun:exit
   fun:(below main)
}
